(lp0
(i__main__
inode
p1
(dp2
S'description'
p3
S''
p4
sS'email'
p5
(lp6
sS'parents'
p7
(lp8
sS'email_directory'
p9
g4
sS'type'
p10
S'root'
p11
sS'children'
p12
(lp13
(i__main__
inode
p14
(dp15
g3
g4
sg5
g6
sg7
(lp16
g1
asg9
g4
sg10
S'sub_root'
p17
sg12
(lp18
(i__main__
inode
p19
(dp20
g3
S'group, recipient, roston, first, administrative, soa, janice, unknown, mason, subject'
p21
sg5
g6
sg7
(lp22
g14
asg9
g4
sg10
S'directory'
p23
sg12
(lp24
(i__main__
inode
p25
(dp26
g3
S'Fagerstrom, Erika (GOV) [/O=SOA/OU=FIRST ADMINISTRATIVE -- Travel Fri. 3/28'
p27
sg5
g6
sg7
(lp28
g19
asg9
S'./sarahs_inbox/parsed/msnbc/txt/1002.txt'
p29
sg10
S'email'
p30
sg12
(lp31
sS'name'
p32
S'abc'
p33
sba(i__main__
inode
p34
(dp35
g3
S'Fagerstrom, Erika (GOV) [/O=SOA/OU=FIRST ADMINISTRATIVE -- RE Romer'
p36
sg5
g6
sg7
(lp37
g19
asg9
S'./sarahs_inbox/parsed/msnbc/txt/1003.txt'
p38
sg10
g30
sg12
g31
sg32
S'1003.txt'
p39
sba(i__main__
inode
p40
(dp41
g3
S"Fagerstrom, Erika (GOV) [erika.fagerstrom@alaska.gov] -- RE FYI- RSVP Spouses' Luncheon Friday, March 28, 2008 1200 to 130pm."
p42
sg5
g6
sg7
(lp43
g19
asg9
S'./sarahs_inbox/parsed/msnbc/txt/;1006.txt'
p44
sg10
g30
sg12
g31
sg32
S';1006.txt'
p45
sba(i__main__
inode
p46
(dp47
g3
S'gov.sarah@yahoo.com -- Re PSA with Todd'
p48
sg5
g6
sg7
(lp49
g19
asg9
S'./sarahs_inbox/parsed/msnbc/txt/10109.txt'
p50
sg10
g30
sg12
g31
sg32
S'10109.txt'
p51
sba(i__main__
inode
p52
(dp53
g3
S'Mason , Janice L (GOV) I/O=SOA/OU=FIRST ADMINISTRATIVE -- RE Military_and Veterans_Affairs'
p54
sg5
g6
sg7
(lp55
g19
asg9
S'./sarahs_inbox/parsed/msnbc/txt/10113.txt'
p56
sg10
g30
sg12
g31
sg32
S'10113.txt'
p57
sba(i__main__
inode
p58
(dp59
g3
S'Mason , Janice L (GOV) [/O=SOA/OU=FIRST ADMINISTRATIVE -- Luggage'
p60
sg5
g6
sg7
(lp61
g19
asg9
S'./sarahs_inbox/parsed/msnbc/txt/10115.txt'
p62
sg10
g30
sg12
g31
sg32
S'10115.txt'
p63
sba(i__main__
inode
p64
(dp65
g3
S'Mason , Janice L (GOV) [/O=SOA/OU=FIRST ADMINISTRATIVE -- Troops Returning'
p66
sg5
g6
sg7
(lp67
g19
asg9
S'./sarahs_inbox/parsed/msnbc/txt/10117.txt'
p68
sg10
g30
sg12
g31
sg32
S'10117.txt'
p69
sba(i__main__
inode
p70
(dp71
g3
S'PARNELL, S (GOV sponsored) [/O=SOA/OU=FIRST ADMINISTRATIVE -- Thinking out loud'
p72
sg5
g6
sg7
(lp73
g19
asg9
S'./sarahs_inbox/parsed/msnbc/txt/10129.txt'
p74
sg10
g30
sg12
g31
sg32
S'10129.txt'
p75
sba(i__main__
inode
p76
(dp77
g3
S'Frye, Ivy J (DOA) [/O=SOA/OU=FIRST ADMINISTRATIVE -- Present from paulette'
p78
sg5
g6
sg7
(lp79
g19
asg9
S'./sarahs_inbox/parsed/msnbc/txt/10138.txt'
p80
sg10
g30
sg12
g31
sg32
S'10138.txt'
p81
sba(i__main__
inode
p82
(dp83
g3
S'Mason , Janice L (GOV) [/O=SOA/OU=FIRST ADMINISTRATIVE -- Re Scheduling'
p84
sg5
g6
sg7
(lp85
g19
asg9
S'./sarahs_inbox/parsed/msnbc/txt/10139.txt'
p86
sg10
g30
sg12
g31
sg32
S'10139.txt'
p87
sba(i__main__
inode
p88
(dp89
g3
S'Frye, Ivy J (DOA) [/O=SOA/OU=FIRST ADMINISTRATIVE -- Fw Psea ads'
p90
sg5
g6
sg7
(lp91
g19
asg9
S'./sarahs_inbox/parsed/msnbc/txt/1014.txt'
p92
sg10
g30
sg12
g31
sg32
S'1014.txt'
p93
sba(i__main__
inode
p94
(dp95
g3
S'Mason, Janice L (GOV) [/O=SOA/OU=FIRST ADMINISTRATIVE -- Re Scheduling'
p96
sg5
g6
sg7
(lp97
g19
asg9
S'./sarahs_inbox/parsed/msnbc/txt/10140.txt'
p98
sg10
g30
sg12
g31
sg32
S'10140.txt'
p99
sba(i__main__
inode
p100
(dp101
g3
S'Mason, Janice L (GOV) [/O=SOA/OU=FIRST ADMINISTRATIVE -- Telephone Calls - Drop Out Students'
p102
sg5
g6
sg7
(lp103
g19
asg9
S'./sarahs_inbox/parsed/msnbc/txt/10142.txt'
p104
sg10
g30
sg12
g31
sg32
S'10142.txt'
p105
sba(i__main__
inode
p106
(dp107
g3
S'Frye, Ivy J (DOA) [/O=SOA/OU=FIRST ADMINISTRATIVE GROUP/CN=RECIPIENTS/CN=IJFRYEI -- FW empire'
p108
sg5
g6
sg7
(lp109
g19
asg9
S'./sarahs_inbox/parsed/msnbc/txt/1015.txt'
p110
sg10
g30
sg12
g31
sg32
S'1015.txt'
p111
sba(i__main__
inode
p112
(dp113
g3
S'Morgan, Katryn L (GOV) [/O=SOA/OU=FIRST ADMINISTRATIVE -- AK Right to Life Remarks'
p114
sg5
g6
sg7
(lp115
g19
asg9
S'./sarahs_inbox/parsed/msnbc/txt/10151.txt'
p116
sg10
g30
sg12
g31
sg32
S'10151.txt'
p117
sba(i__main__
inode
p118
(dp119
g3
S'Colberg, Tails J (LAW) [/O=SOA/OU=FIRST ADMINISTRATIVE -- Today.'
p120
sg5
g6
sg7
(lp121
g19
asg9
S'./sarahs_inbox/parsed/msnbc/txt/10155.txt'
p122
sg10
g30
sg12
g31
sg32
S'10155.txt'
p123
sba(i__main__
inode
p124
(dp125
g3
S'Fagerstrom, Erika (GOV) [/O=SOA/OU=FIRST ADMINISTRATIVE -- Flights'
p126
sg5
g6
sg7
(lp127
g19
asg9
S'./sarahs_inbox/parsed/msnbc/txt/1016.txt'
p128
sg10
g30
sg12
g31
sg32
S'1016.txt'
p129
sba(i__main__
inode
p130
(dp131
g3
S'Frye, Ivy J (DOA) [/O=SOA/OU=FIRST ADMINISTRATIVE -- Car trouble'
p132
sg5
g6
sg7
(lp133
g19
asg9
S'./sarahs_inbox/parsed/msnbc/txt/10162.txt'
p134
sg10
g30
sg12
g31
sg32
S'10162.txt'
p135
sba(i__main__
inode
p136
(dp137
g3
S'Frye, Ivy J (DOA) [/O=SOA/OU=FIRST ADMINISTRATIVE -- Re Happy Thanksgiving!'
p138
sg5
g6
sg7
(lp139
g19
asg9
S'./sarahs_inbox/parsed/msnbc/txt/10164.txt'
p140
sg10
g30
sg12
g31
sg32
S'10164.txt'
p141
sba(i__main__
inode
p142
(dp143
g3
S'Fagerstrom, Erika (GOV) [/O=SOA/OU=FIRST ADMINISTRATIVE -- Dates are TH 3/3 and F 3/4'
p144
sg5
g6
sg7
(lp145
g19
asg9
S'./sarahs_inbox/parsed/msnbc/txt/1017.txt'
p146
sg10
g30
sg12
g31
sg32
S'1017.txt'
p147
sba(i__main__
inode
p148
(dp149
g3
S'PARNELL, S (GOV sponsored) [/O=SOA/OU=FIRST ADMINISTRATIVE -- Re Fagan'
p150
sg5
g6
sg7
(lp151
g19
asg9
S'./sarahs_inbox/parsed/msnbc/txt/10176.txt'
p152
sg10
g30
sg12
g31
sg32
S'10176.txt'
p153
sba(i__main__
inode
p154
(dp155
g3
S'Balash, Joseph R (GOV) [/O=SOA/OU=FIRST ADMINISTRATIVE -- Re Energy pts'
p156
sg5
g6
sg7
(lp157
g19
asg9
S'./sarahs_inbox/parsed/msnbc/txt/10178.txt'
p158
sg10
g30
sg12
g31
sg32
S'10178.txt'
p159
sbasg32
S'Topic: 0'
p160
sba(i__main__
inode
p161
(dp162
g3
S'process, executive, state, constitution, attorney, client, sec, art, mail, communication'
p163
sg5
g6
sg7
(lp164
g14
asg9
g4
sg10
g23
sg12
(lp165
(i__main__
inode
p166
(dp167
g3
S'Frye, Ivy J (DOA) [/O=SOA/OU=FIRST ADMINISTRATIVE -- Fw Cell phone reimbursement'
p168
sg5
g6
sg7
(lp169
g161
asg9
S'./sarahs_inbox/parsed/msnbc/txt/1001.txt'
p170
sg10
g30
sg12
g31
sg32
S'1001.txt'
p171
sba(i__main__
inode
p172
(dp173
g3
S'Mason , Janice L (GOV) [/O=SOA/OU=FIRST ADMINISTRATIVE -- Luggage'
p174
sg5
g6
sg7
(lp175
g161
asg9
S'./sarahs_inbox/parsed/msnbc/txt/10119.txt'
p176
sg10
g30
sg12
g31
sg32
S'10119.txt'
p177
sbasg32
S'Topic: 1'
p178
sba(i__main__
inode
p179
(dp180
g3
S'know, get, would, time, want, like, good, work, people, think'
p181
sg5
g6
sg7
(lp182
g14
asg9
g4
sg10
g23
sg12
(lp183
(i__main__
inode
p184
(dp185
g3
S"Fagerstrom, Erika (GOV) [erika.fagerstrom@alaska.gov] -- Final RSVP List- Spouses' Luncheon 1200-130pm."
p186
sg5
g6
sg7
(lp187
g179
asg9
S'./sarahs_inbox/parsed/msnbc/txt/1010.txt'
p188
sg10
g30
sg12
g31
sg32
S'1010.txt'
p189
sba(i__main__
inode
p190
(dp191
g3
S'Frye, Ivy J (DOA) [/O=SOA/OU=FIRST ADMINISTRATIVE -- Re Fwd Support PR Campaign from Trooper President'
p192
sg5
g6
sg7
(lp193
g179
asg9
S'./sarahs_inbox/parsed/msnbc/txt/1011.txt'
p194
sg10
g30
sg12
g31
sg32
S'1011.txt'
p195
sba(i__main__
inode
p196
(dp197
g3
S"Governor Sarah Palin (GOV sponsored) [governor@alaska.govj -- FW George Brown's granddaughter"
p198
sg5
g6
sg7
(lp199
g179
asg9
S'./sarahs_inbox/parsed/msnbc/txt/10110.txt'
p200
sg10
g30
sg12
g31
sg32
S'10110.txt'
p201
sba(i__main__
inode
p202
(dp203
g3
S'Mason , Janice L (GOV) [/O=SOA/OU=FIRST ADMINISTRATIVE -- RE Military_and_VeteransAffairs'
p204
sg5
g6
sg7
(lp205
g179
asg9
S'./sarahs_inbox/parsed/msnbc/txt/10114.txt'
p206
sg10
g30
sg12
g31
sg32
S'10114.txt'
p207
sba(i__main__
inode
p208
(dp209
g3
S'PARNELL, S (GOV sponsored) [/O=SOA/OU=FIRST ADMINISTRATIVE -- LG Office Budget'
p210
sg5
g6
sg7
(lp211
g179
asg9
S'./sarahs_inbox/parsed/msnbc/txt/10116.txt'
p212
sg10
g30
sg12
g31
sg32
S'10116.txt'
p213
sba(i__main__
inode
p214
(dp215
g3
S'PARNELL, S (GOV sponsored ) [/O=SOA/OU=FIRST ADMINISTRATIVE -- LG Office Budget'
p216
sg5
g6
sg7
(lp217
g179
asg9
S'./sarahs_inbox/parsed/msnbc/txt/10118.txt'
p218
sg10
g30
sg12
g31
sg32
S'10118.txt'
p219
sba(i__main__
inode
p220
(dp221
g3
S'ftb907@yahoo.com -- Re Fwd Support PR Campaign from Trooper President'
p222
sg5
g6
sg7
(lp223
g179
asg9
S'./sarahs_inbox/parsed/msnbc/txt/1012.txt'
p224
sg10
g30
sg12
g31
sg32
S'1012.txt'
p225
sba(i__main__
inode
p226
(dp227
g3
S'PARNELL, S (GOV sponsored) [/O=SOA/OU=FIRST ADMINISTRATIVE -- Re Thinking out loud'
p228
sg5
g6
sg7
(lp229
g179
asg9
S'./sarahs_inbox/parsed/msnbc/txt/10127.txt'
p230
sg10
g30
sg12
g31
sg32
S'10127.txt'
p231
sba(i__main__
inode
p232
(dp233
g3
S'gov.sarah@yahoo.com -- Re Thinking out loud'
p234
sg5
g6
sg7
(lp235
g179
asg9
S'./sarahs_inbox/parsed/msnbc/txt/10128.txt'
p236
sg10
g30
sg12
g31
sg32
S'10128.txt'
p237
sba(i__main__
inode
p238
(dp239
g3
S'PARNELL, S (GOV sponsored) [/O=SOA/OU=FIRST ADMINISTRATIVE -- Thinking out loud'
p240
sg5
g6
sg7
(lp241
g179
asg9
S'./sarahs_inbox/parsed/msnbc/txt/10129.txt'
p242
sg10
g30
sg12
g31
sg32
g75
sba(i__main__
inode
p243
(dp244
g3
S'gov.sarah@yahoo.com -- Re Scheduling'
p245
sg5
g6
sg7
(lp246
g179
asg9
S'./sarahs_inbox/parsed/msnbc/txt/10130.txt'
p247
sg10
g30
sg12
g31
sg32
S'10130.txt'
p248
sba(i__main__
inode
p249
(dp250
g3
S'gov.sarah@yahoo.com -- Re Scheduling'
p251
sg5
g6
sg7
(lp252
g179
asg9
S'./sarahs_inbox/parsed/msnbc/txt/10131.txt'
p253
sg10
g30
sg12
g31
sg32
S'10131.txt'
p254
sba(i__main__
inode
p255
(dp256
g3
S'gov. sarah@yahoo.com -- Re Telephone Calls - Drop Out Students'
p257
sg5
g6
sg7
(lp258
g179
asg9
S'./sarahs_inbox/parsed/msnbc/txt/10132.txt'
p259
sg10
g30
sg12
g31
sg32
S'10132.txt'
p260
sba(i__main__
inode
p261
(dp262
g3
S'gov.sarah@yahoo.com -- Re Present from paulette'
p263
sg5
g6
sg7
(lp264
g179
asg9
S'./sarahs_inbox/parsed/msnbc/txt/10136.txt'
p265
sg10
g30
sg12
g31
sg32
S'10136.txt'
p266
sba(i__main__
inode
p267
(dp268
g3
S'gov.sarah@yahoo.com -- Re Scheduling'
p269
sg5
g6
sg7
(lp270
g179
asg9
S'./sarahs_inbox/parsed/msnbc/txt/10137.txt'
p271
sg10
g30
sg12
g31
sg32
S'10137.txt'
p272
sba(i__main__
inode
p273
(dp274
g3
S'Frye, Ivy J (DOA) [/O=SOA/OU=FIRST ADMINISTRATIVE -- Present from paulette'
p275
sg5
g6
sg7
(lp276
g179
asg9
S'./sarahs_inbox/parsed/msnbc/txt/10138.txt'
p277
sg10
g30
sg12
g31
sg32
g81
sba(i__main__
inode
p278
(dp279
g3
S'Mason, Janice L (GOV) [/O=SOA/OU=FIRST ADMINISTRATIVE -- Re Scheduling'
p280
sg5
g6
sg7
(lp281
g179
asg9
S'./sarahs_inbox/parsed/msnbc/txt/10140.txt'
p282
sg10
g30
sg12
g31
sg32
g99
sba(i__main__
inode
p283
(dp284
g3
S'Mason , Janice L (GOV) [/O=SOA/OU=FIRST ADMINISTRATIVE -- Scheduling'
p285
sg5
g6
sg7
(lp286
g179
asg9
S'./sarahs_inbox/parsed/msnbc/txt/10143.txt'
p287
sg10
g30
sg12
g31
sg32
S'10143.txt'
p288
sba(i__main__
inode
p289
(dp290
g3
S'John Katz jwkatz ALASKADC.org] -- Federal Funding/State Budget'
p291
sg5
g6
sg7
(lp292
g179
asg9
S'./sarahs_inbox/parsed/msnbc/txt/10144.txt'
p293
sg10
g30
sg12
g31
sg32
S'10144.txt'
p294
sba(i__main__
inode
p295
(dp296
g3
S'Morgan , Katryn L (GOV) [/O=SOA/OU=FIRST ADMINISTRATIVE -- AK Right to Life Remarks'
p297
sg5
g6
sg7
(lp298
g179
asg9
S'./sarahs_inbox/parsed/msnbc/txt/10145.txt'
p299
sg10
g30
sg12
g31
sg32
S'10145.txt'
p300
sba(i__main__
inode
p301
(dp302
g3
S'Governor Sarah Palin (GOV sponsored) [govemor@alaska.gov] -- RE Health-Care'
p303
sg5
g6
sg7
(lp304
g179
asg9
S'./sarahs_inbox/parsed/msnbc/txt/10149.txt'
p305
sg10
g30
sg12
g31
sg32
S'10149.txt'
p306
sba(i__main__
inode
p307
(dp308
g3
S'Rutherford, Marty K (DNR) [/O=SOA/OU=FIRST ADMINISTRATIVE -- FW Confirmation of the Novemberl 5th discussion'
p309
sg5
g6
sg7
(lp310
g179
asg9
S'./sarahs_inbox/parsed/msnbc/txt/10152.txt'
p311
sg10
g30
sg12
g31
sg32
S'10152.txt'
p312
sba(i__main__
inode
p313
(dp314
g3
S'Sarah Palin [ gov.sarah @yahoo.com] -- Re Happy Thanksgiving!'
p315
sg5
g6
sg7
(lp316
g179
asg9
S'./sarahs_inbox/parsed/msnbc/txt/10159.txt'
p317
sg10
g30
sg12
g31
sg32
S'10159.txt'
p318
sba(i__main__
inode
p319
(dp320
g3
S'Frye, Ivy J (DOA) [/O=SOA/OU=FIRST ADMINISTRATIVE -- Car trouble'
p321
sg5
g6
sg7
(lp322
g179
asg9
S'./sarahs_inbox/parsed/msnbc/txt/10162.txt'
p323
sg10
g30
sg12
g31
sg32
g135
sba(i__main__
inode
p324
(dp325
g3
S'Frye, Ivy J (DOA) [/O=SOA/OU=FIRST ADMINISTRATIVE -- Re Happy Thanksgiving!'
p326
sg5
g6
sg7
(lp327
g179
asg9
S'./sarahs_inbox/parsed/msnbc/txt/10164.txt'
p328
sg10
g30
sg12
g31
sg32
g141
sba(i__main__
inode
p329
(dp330
g3
S'gov.sarah@yahoo.com -- Re Conoco'
p331
sg5
g6
sg7
(lp332
g179
asg9
S'./sarahs_inbox/parsed/msnbc/txt/10168.txt'
p333
sg10
g30
sg12
g31
sg32
S'10168.txt'
p334
sba(i__main__
inode
p335
(dp336
g3
S'gov.sarah@yahoo.com -- Re Conoco'
p337
sg5
g6
sg7
(lp338
g179
asg9
S'./sarahs_inbox/parsed/msnbc/txt/10169.txt'
p339
sg10
g30
sg12
g31
sg32
S'10169.txt'
p340
sba(i__main__
inode
p341
(dp342
g3
S'PARNELL, S (GOV sponsored) [/O=SOA/OU=FIRST ADMINISTRATIVE -- Re Fagan'
p343
sg5
g6
sg7
(lp344
g179
asg9
S'./sarahs_inbox/parsed/msnbc/txt/10172.txt'
p345
sg10
g30
sg12
g31
sg32
S'10172.txt'
p346
sba(i__main__
inode
p347
(dp348
g3
S'gov.sarah @yahoo.com -- Re Fagan'
p349
sg5
g6
sg7
(lp350
g179
asg9
S'./sarahs_inbox/parsed/msnbc/txt/10173.txt'
p351
sg10
g30
sg12
g31
sg32
S'10173.txt'
p352
sba(i__main__
inode
p353
(dp354
g3
S'PARNELL, S (GOV sponsored) [/O=SOA/OU=FIRST ADMINISTRATIVE -- Re Fagan'
p355
sg5
g6
sg7
(lp356
g179
asg9
S'./sarahs_inbox/parsed/msnbc/txt/10174.txt'
p357
sg10
g30
sg12
g31
sg32
S'10174.txt'
p358
sba(i__main__
inode
p359
(dp360
g3
S'gov.sarah@yahoo.com -- Re Fagan'
p361
sg5
g6
sg7
(lp362
g179
asg9
S'./sarahs_inbox/parsed/msnbc/txt/10175.txt'
p363
sg10
g30
sg12
g31
sg32
S'10175.txt'
p364
sba(i__main__
inode
p365
(dp366
g3
S'gov.sarah@yahoo.com -- Re AEA Director'
p367
sg5
g6
sg7
(lp368
g179
asg9
S'./sarahs_inbox/parsed/msnbc/txt/10181.txt'
p369
sg10
g30
sg12
g31
sg32
S'10181.txt'
p370
sba(i__main__
inode
p371
(dp372
g3
S'gov.sarah@yahoo.com -- Re Conoco'
p373
sg5
g6
sg7
(lp374
g179
asg9
S'./sarahs_inbox/parsed/msnbc/txt/10183.txt'
p375
sg10
g30
sg12
g31
sg32
S'10183.txt'
p376
sba(i__main__
inode
p377
(dp378
g3
S'Governor Sarah Palin (GOV sponsored) [governor@alaska.gov] -- RE Health-Care'
p379
sg5
g6
sg7
(lp380
g179
asg9
S'./sarahs_inbox/parsed/msnbc/txt/10184.txt'
p381
sg10
g30
sg12
g31
sg32
S'10184.txt'
p382
sba(i__main__
inode
p383
(dp384
g3
S'gov.sarah@yahoo.com -- AEA Director'
p385
sg5
g6
sg7
(lp386
g179
asg9
S'./sarahs_inbox/parsed/msnbc/txt/10185.txt'
p387
sg10
g30
sg12
g31
sg32
S'10185.txt'
p388
sba(i__main__
inode
p389
(dp390
g3
S'Frye, Ivy J (DOA) [/O=SOA/OU=FIRST ADMINISTRATIVE -- Fw Conoco'
p391
sg5
g6
sg7
(lp392
g179
asg9
S'./sarahs_inbox/parsed/msnbc/txt/10186.txt'
p393
sg10
g30
sg12
g31
sg32
S'10186.txt'
p394
sbasg32
S'Topic: 2'
p395
sba(i__main__
inode
p396
(dp397
g3
S'rural, native, bethel, alaska, dec, village, water, rhonda, mine, commission'
p398
sg5
g6
sg7
(lp399
g14
asg9
g4
sg10
g23
sg12
(lp400
(i__main__
inode
p401
(dp402
g3
S'Governor Sarah Palin (GOV sponsored) [governor@alaska.gov] -- RE Military_and_Veterans_Affairs'
p403
sg5
g6
sg7
(lp404
g396
asg9
S'./sarahs_inbox/parsed/msnbc/txt/10158.txt'
p405
sg10
g30
sg12
g31
sg32
S'10158.txt'
p406
sbasg32
S'Topic: 3'
p407
sba(i__main__
inode
p408
(dp409
g3
S'state, senator, senate, would, bill, house, republican, vote, election, president'
p410
sg5
g6
sg7
(lp411
g14
asg9
g4
sg10
g23
sg12
(lp412
(i__main__
inode
p413
(dp414
g3
S'gov.sarah@yahoo.com -- Re Preparation and roll-out related to filing of lawsuit against Mercer'
p415
sg5
g6
sg7
(lp416
g408
asg9
S'./sarahs_inbox/parsed/msnbc/txt/10112.txt'
p417
sg10
g30
sg12
g31
sg32
S'10112.txt'
p418
sba(i__main__
inode
p419
(dp420
g3
S'Governor Sarah Palin (GOV sponsored) [govemor@alaska.gov] -- RE Other'
p421
sg5
g6
sg7
(lp422
g408
asg9
S'./sarahs_inbox/parsed/msnbc/txt/10126.txt'
p423
sg10
g30
sg12
g31
sg32
S'10126.txt'
p424
sbasg32
S'Topic: 4'
p425
sba(i__main__
inode
p426
(dp427
g3
S'governor, event, would, day, travel, anchorage, family, trip, attend, meeting'
p428
sg5
g6
sg7
(lp429
g14
asg9
g4
sg10
g23
sg12
(lp430
(i__main__
inode
p431
(dp432
g3
S'Fagerstrom, Erika (GOV) VO=SOA/OU=FIRST ADMINISTRATIVE -- Educ.Comm. Thompson- Request to attend Anchorage Mtg.on "Drop out issue" Fri. 4/18 (10-2pm.)'
p433
sg5
g6
sg7
(lp434
g426
asg9
S'./sarahs_inbox/parsed/msnbc/txt/1005.txt'
p435
sg10
g30
sg12
g31
sg32
S'1005.txt'
p436
sba(i__main__
inode
p437
(dp438
g3
S'Mason , Janice L (GOV) [/O=SOA/OU=FIRST ADMINISTRATIVE -- RE Military_and_VeteransAffairs'
p439
sg5
g6
sg7
(lp440
g426
asg9
S'./sarahs_inbox/parsed/msnbc/txt/10114.txt'
p441
sg10
g30
sg12
g31
sg32
g207
sba(i__main__
inode
p442
(dp443
g3
S'Mason , Janice L (GOV) [/O=SOA/OU=FIRST ADMINISTRATIVE -- Troops Returning'
p444
sg5
g6
sg7
(lp445
g426
asg9
S'./sarahs_inbox/parsed/msnbc/txt/10117.txt'
p446
sg10
g30
sg12
g31
sg32
g69
sba(i__main__
inode
p447
(dp448
g3
S'gov.sarah@yahoo.com -- Re Scheduling'
p449
sg5
g6
sg7
(lp450
g426
asg9
S'./sarahs_inbox/parsed/msnbc/txt/10130.txt'
p451
sg10
g30
sg12
g31
sg32
g248
sba(i__main__
inode
p452
(dp453
g3
S'gov.sarah@yahoo.com -- Re Scheduling'
p454
sg5
g6
sg7
(lp455
g426
asg9
S'./sarahs_inbox/parsed/msnbc/txt/10131.txt'
p456
sg10
g30
sg12
g31
sg32
g254
sba(i__main__
inode
p457
(dp458
g3
S'gov.sarah@yahoo.com -- Re Scheduling'
p459
sg5
g6
sg7
(lp460
g426
asg9
S'./sarahs_inbox/parsed/msnbc/txt/10137.txt'
p461
sg10
g30
sg12
g31
sg32
g272
sba(i__main__
inode
p462
(dp463
g3
S'Governor Sarah Palin (GOV sponsored) [governor@alaska.gov] -- RE Military_and_Veterans_Affairs'
p464
sg5
g6
sg7
(lp465
g426
asg9
S'./sarahs_inbox/parsed/msnbc/txt/10158.txt'
p466
sg10
g30
sg12
g31
sg32
g406
sba(i__main__
inode
p467
(dp468
g3
S'gov.sarah@yahoo.com -- Re Scheduling'
p469
sg5
g6
sg7
(lp470
g426
asg9
S'./sarahs_inbox/parsed/msnbc/txt/10171.txt'
p471
sg10
g30
sg12
g31
sg32
S'10171.txt'
p472
sba(i__main__
inode
p473
(dp474
g3
S'gov.sarah@yahoo.com -- Re School'
p475
sg5
g6
sg7
(lp476
g426
asg9
S'./sarahs_inbox/parsed/msnbc/txt/10180.txt'
p477
sg10
g30
sg12
g31
sg32
S'10180.txt'
p478
sbasg32
S'Topic: 5'
p479
sba(i__main__
inode
p480
(dp481
g3
S'sent, one, gov, blackberry, device, cellular, pra, unknown, thanks, janice'
p482
sg5
g6
sg7
(lp483
g14
asg9
g4
sg10
g23
sg12
(lp484
(i__main__
inode
p485
(dp486
g3
S'Frye, Ivy J (DOA) [/O=SOA/OU=FIRST ADMINISTRATIVE -- Fw Cell phone reimbursement'
p487
sg5
g6
sg7
(lp488
g480
asg9
S'./sarahs_inbox/parsed/msnbc/txt/1001.txt'
p489
sg10
g30
sg12
g31
sg32
g171
sba(i__main__
inode
p490
(dp491
g3
S'gov.sarah@yahoo.com -- Re PSA with Todd'
p492
sg5
g6
sg7
(lp493
g480
asg9
S'./sarahs_inbox/parsed/msnbc/txt/10109.txt'
p494
sg10
g30
sg12
g31
sg32
g51
sba(i__main__
inode
p495
(dp496
g3
S"Governor Sarah Palin (GOV sponsored) [governor@alaska.govj -- FW George Brown's granddaughter"
p497
sg5
g6
sg7
(lp498
g480
asg9
S'./sarahs_inbox/parsed/msnbc/txt/10110.txt'
p499
sg10
g30
sg12
g31
sg32
g201
sba(i__main__
inode
p500
(dp501
g3
S'gov.sarah@yahoo.com -- Re Preparation and roll-out related to filing of lawsuit against Mercer'
p502
sg5
g6
sg7
(lp503
g480
asg9
S'./sarahs_inbox/parsed/msnbc/txt/10112.txt'
p504
sg10
g30
sg12
g31
sg32
g418
sba(i__main__
inode
p505
(dp506
g3
S'Mason , Janice L (GOV) I/O=SOA/OU=FIRST ADMINISTRATIVE -- RE Military_and Veterans_Affairs'
p507
sg5
g6
sg7
(lp508
g480
asg9
S'./sarahs_inbox/parsed/msnbc/txt/10113.txt'
p509
sg10
g30
sg12
g31
sg32
g57
sba(i__main__
inode
p510
(dp511
g3
S'Mason , Janice L (GOV) [/O=SOA/OU=FIRST ADMINISTRATIVE -- Luggage'
p512
sg5
g6
sg7
(lp513
g480
asg9
S'./sarahs_inbox/parsed/msnbc/txt/10115.txt'
p514
sg10
g30
sg12
g31
sg32
g63
sba(i__main__
inode
p515
(dp516
g3
S'Mason , Janice L (GOV) [/O=SOA/OU=FIRST ADMINISTRATIVE -- Troops Returning'
p517
sg5
g6
sg7
(lp518
g480
asg9
S'./sarahs_inbox/parsed/msnbc/txt/10117.txt'
p519
sg10
g30
sg12
g31
sg32
g69
sba(i__main__
inode
p520
(dp521
g3
S'Sarah Palin [gov.sarah@yahoo.com] -- Re AK Right to Life Remarks'
p522
sg5
g6
sg7
(lp523
g480
asg9
S'./sarahs_inbox/parsed/msnbc/txt/10120.txt'
p524
sg10
g30
sg12
g31
sg32
S'10120.txt'
p525
sba(i__main__
inode
p526
(dp527
g3
S'gov.sarah @yahoo.com -- CSI Alaska'
p528
sg5
g6
sg7
(lp529
g480
asg9
S'./sarahs_inbox/parsed/msnbc/txt/10125.txt'
p530
sg10
g30
sg12
g31
sg32
S'10125.txt'
p531
sba(i__main__
inode
p532
(dp533
g3
S'PARNELL, S (GOV sponsored) [/O=SOA/OU=FIRST ADMINISTRATIVE -- Re Thinking out loud'
p534
sg5
g6
sg7
(lp535
g480
asg9
S'./sarahs_inbox/parsed/msnbc/txt/10127.txt'
p536
sg10
g30
sg12
g31
sg32
g231
sba(i__main__
inode
p537
(dp538
g3
S'gov.sarah@yahoo.com -- Re Thinking out loud'
p539
sg5
g6
sg7
(lp540
g480
asg9
S'./sarahs_inbox/parsed/msnbc/txt/10128.txt'
p541
sg10
g30
sg12
g31
sg32
g237
sba(i__main__
inode
p542
(dp543
g3
S'gov.sarah@yahoo.com -- Re Scheduling'
p544
sg5
g6
sg7
(lp545
g480
asg9
S'./sarahs_inbox/parsed/msnbc/txt/10130.txt'
p546
sg10
g30
sg12
g31
sg32
g248
sba(i__main__
inode
p547
(dp548
g3
S'gov.sarah@yahoo.com -- Re Scheduling'
p549
sg5
g6
sg7
(lp550
g480
asg9
S'./sarahs_inbox/parsed/msnbc/txt/10131.txt'
p551
sg10
g30
sg12
g31
sg32
g254
sba(i__main__
inode
p552
(dp553
g3
S'gov. sarah@yahoo.com -- Re Telephone Calls - Drop Out Students'
p554
sg5
g6
sg7
(lp555
g480
asg9
S'./sarahs_inbox/parsed/msnbc/txt/10132.txt'
p556
sg10
g30
sg12
g31
sg32
g260
sba(i__main__
inode
p557
(dp558
g3
S'gov.sarah@yahoo.com -- Re Welcome to WOW! - News'
p559
sg5
g6
sg7
(lp560
g480
asg9
S'./sarahs_inbox/parsed/msnbc/txt/10133.txt'
p561
sg10
g30
sg12
g31
sg32
S'10133.txt'
p562
sba(i__main__
inode
p563
(dp564
g3
S'Colberg , Talis J (LAW) [/O=SOA/OU=FIRST ADMINISTRATIVE -- Re Welcome to WOW! - News'
p565
sg5
g6
sg7
(lp566
g480
asg9
S'./sarahs_inbox/parsed/msnbc/txt/10134.txt'
p567
sg10
g30
sg12
g31
sg32
S'10134.txt'
p568
sba(i__main__
inode
p569
(dp570
g3
S'Colberg , Talis J (LAW) [/O=SOA/OU=FIRST ADMINISTRATIVE -- Re Welcome to WOW! - News'
p571
sg5
g6
sg7
(lp572
g480
asg9
S'./sarahs_inbox/parsed/msnbc/txt/10135.txt'
p573
sg10
g30
sg12
g31
sg32
S'10135.txt'
p574
sba(i__main__
inode
p575
(dp576
g3
S'gov.sarah@yahoo.com -- Re Present from paulette'
p577
sg5
g6
sg7
(lp578
g480
asg9
S'./sarahs_inbox/parsed/msnbc/txt/10136.txt'
p579
sg10
g30
sg12
g31
sg32
g266
sba(i__main__
inode
p580
(dp581
g3
S'gov.sarah@yahoo.com -- Re Scheduling'
p582
sg5
g6
sg7
(lp583
g480
asg9
S'./sarahs_inbox/parsed/msnbc/txt/10137.txt'
p584
sg10
g30
sg12
g31
sg32
g272
sba(i__main__
inode
p585
(dp586
g3
S'Mason , Janice L (GOV) [/O=SOA/OU=FIRST ADMINISTRATIVE -- Re Scheduling'
p587
sg5
g6
sg7
(lp588
g480
asg9
S'./sarahs_inbox/parsed/msnbc/txt/10139.txt'
p589
sg10
g30
sg12
g31
sg32
g87
sba(i__main__
inode
p590
(dp591
g3
S'Mason, Janice L (GOV) [/O=SOA/OU=FIRST ADMINISTRATIVE -- Re Scheduling'
p592
sg5
g6
sg7
(lp593
g480
asg9
S'./sarahs_inbox/parsed/msnbc/txt/10140.txt'
p594
sg10
g30
sg12
g31
sg32
g99
sba(i__main__
inode
p595
(dp596
g3
S'Mason, Janice L (GOV) [/O=SOA/OU=FIRST ADMINISTRATIVE -- Telephone Calls - Drop Out Students'
p597
sg5
g6
sg7
(lp598
g480
asg9
S'./sarahs_inbox/parsed/msnbc/txt/10142.txt'
p599
sg10
g30
sg12
g31
sg32
g105
sba(i__main__
inode
p600
(dp601
g3
S'Mason , Janice L (GOV) [/O=SOA/OU=FIRST ADMINISTRATIVE -- Scheduling'
p602
sg5
g6
sg7
(lp603
g480
asg9
S'./sarahs_inbox/parsed/msnbc/txt/10143.txt'
p604
sg10
g30
sg12
g31
sg32
g288
sba(i__main__
inode
p605
(dp606
g3
S'Morgan , Katryn L (GOV) [/O=SOA/OU=FIRST ADMINISTRATIVE -- AK Right to Life Remarks'
p607
sg5
g6
sg7
(lp608
g480
asg9
S'./sarahs_inbox/parsed/msnbc/txt/10145.txt'
p609
sg10
g30
sg12
g31
sg32
g300
sba(i__main__
inode
p610
(dp611
g3
S'Morgan, Katryn L (GOV) [/O=SOA/OU=FIRST ADMINISTRATIVE -- AK Right to Life Remarks'
p612
sg5
g6
sg7
(lp613
g480
asg9
S'./sarahs_inbox/parsed/msnbc/txt/10151.txt'
p614
sg10
g30
sg12
g31
sg32
g117
sba(i__main__
inode
p615
(dp616
g3
S'Rutherford, Marty K (DNR) [/O=SOA/OU=FIRST ADMINISTRATIVE -- FW Confirmation of the Novemberl 5th discussion'
p617
sg5
g6
sg7
(lp618
g480
asg9
S'./sarahs_inbox/parsed/msnbc/txt/10152.txt'
p619
sg10
g30
sg12
g31
sg32
g312
sba(i__main__
inode
p620
(dp621
g3
S'gov.sarah@yahoo.com -- Re AK Right to Life Remarks'
p622
sg5
g6
sg7
(lp623
g480
asg9
S'./sarahs_inbox/parsed/msnbc/txt/10154.txt'
p624
sg10
g30
sg12
g31
sg32
S'10154.txt'
p625
sba(i__main__
inode
p626
(dp627
g3
S'Colberg, Tails J (LAW) [/O=SOA/OU=FIRST ADMINISTRATIVE -- Today.'
p628
sg5
g6
sg7
(lp629
g480
asg9
S'./sarahs_inbox/parsed/msnbc/txt/10155.txt'
p630
sg10
g30
sg12
g31
sg32
g123
sba(i__main__
inode
p631
(dp632
g3
S'Fagerstrom, Erika (GOV) [/O=SOA/OU=FIRST ADMINISTRATIVE -- Flights'
p633
sg5
g6
sg7
(lp634
g480
asg9
S'./sarahs_inbox/parsed/msnbc/txt/1016.txt'
p635
sg10
g30
sg12
g31
sg32
g129
sba(i__main__
inode
p636
(dp637
g3
S'gov.sarah@yahoo.com -- Re Bridge DOT bond'
p638
sg5
g6
sg7
(lp639
g480
asg9
S'./sarahs_inbox/parsed/msnbc/txt/10163.txt'
p640
sg10
g30
sg12
g31
sg32
S'10163.txt'
p641
sba(i__main__
inode
p642
(dp643
g3
S'gov.sarah@yahoo.com -- Ktuu'
p644
sg5
g6
sg7
(lp645
g480
asg9
S'./sarahs_inbox/parsed/msnbc/txt/10167.txt'
p646
sg10
g30
sg12
g31
sg32
S'10167.txt'
p647
sba(i__main__
inode
p648
(dp649
g3
S'gov.sarah@yahoo.com -- Re Conoco'
p650
sg5
g6
sg7
(lp651
g480
asg9
S'./sarahs_inbox/parsed/msnbc/txt/10168.txt'
p652
sg10
g30
sg12
g31
sg32
g334
sba(i__main__
inode
p653
(dp654
g3
S'gov.sarah@yahoo.com -- Re Conoco'
p655
sg5
g6
sg7
(lp656
g480
asg9
S'./sarahs_inbox/parsed/msnbc/txt/10169.txt'
p657
sg10
g30
sg12
g31
sg32
g340
sba(i__main__
inode
p658
(dp659
g3
S'gov.sarah@yahoo.com -- Re Scheduling'
p660
sg5
g6
sg7
(lp661
g480
asg9
S'./sarahs_inbox/parsed/msnbc/txt/10171.txt'
p662
sg10
g30
sg12
g31
sg32
g472
sba(i__main__
inode
p663
(dp664
g3
S'PARNELL, S (GOV sponsored) [/O=SOA/OU=FIRST ADMINISTRATIVE -- Re Fagan'
p665
sg5
g6
sg7
(lp666
g480
asg9
S'./sarahs_inbox/parsed/msnbc/txt/10172.txt'
p667
sg10
g30
sg12
g31
sg32
g346
sba(i__main__
inode
p668
(dp669
g3
S'gov.sarah @yahoo.com -- Re Fagan'
p670
sg5
g6
sg7
(lp671
g480
asg9
S'./sarahs_inbox/parsed/msnbc/txt/10173.txt'
p672
sg10
g30
sg12
g31
sg32
g352
sba(i__main__
inode
p673
(dp674
g3
S'PARNELL, S (GOV sponsored) [/O=SOA/OU=FIRST ADMINISTRATIVE -- Re Fagan'
p675
sg5
g6
sg7
(lp676
g480
asg9
S'./sarahs_inbox/parsed/msnbc/txt/10174.txt'
p677
sg10
g30
sg12
g31
sg32
g358
sba(i__main__
inode
p678
(dp679
g3
S'gov.sarah@yahoo.com -- Re Fagan'
p680
sg5
g6
sg7
(lp681
g480
asg9
S'./sarahs_inbox/parsed/msnbc/txt/10175.txt'
p682
sg10
g30
sg12
g31
sg32
g364
sba(i__main__
inode
p683
(dp684
g3
S'PARNELL, S (GOV sponsored) [/O=SOA/OU=FIRST ADMINISTRATIVE -- Re Fagan'
p685
sg5
g6
sg7
(lp686
g480
asg9
S'./sarahs_inbox/parsed/msnbc/txt/10176.txt'
p687
sg10
g30
sg12
g31
sg32
g153
sba(i__main__
inode
p688
(dp689
g3
S'gov.sarah@yahoo.com -- Fagan'
p690
sg5
g6
sg7
(lp691
g480
asg9
S'./sarahs_inbox/parsed/msnbc/txt/10177.txt'
p692
sg10
g30
sg12
g31
sg32
S'10177.txt'
p693
sba(i__main__
inode
p694
(dp695
g3
S'Balash, Joseph R (GOV) [/O=SOA/OU=FIRST ADMINISTRATIVE -- Re Energy pts'
p696
sg5
g6
sg7
(lp697
g480
asg9
S'./sarahs_inbox/parsed/msnbc/txt/10178.txt'
p698
sg10
g30
sg12
g31
sg32
g159
sba(i__main__
inode
p699
(dp700
g3
S'gov.sarah @yahoo.com -- Energy pts'
p701
sg5
g6
sg7
(lp702
g480
asg9
S'./sarahs_inbox/parsed/msnbc/txt/10179.txt'
p703
sg10
g30
sg12
g31
sg32
S'10179.txt'
p704
sba(i__main__
inode
p705
(dp706
g3
S'Perry, Kristina Y (GOV) [kris.perry@alaska.gov] -- Re Philadelphia'
p707
sg5
g6
sg7
(lp708
g480
asg9
S'./sarahs_inbox/parsed/msnbc/txt/1018.txt'
p709
sg10
g30
sg12
g31
sg32
S'1018.txt'
p710
sba(i__main__
inode
p711
(dp712
g3
S'gov.sarah@yahoo.com -- Re School'
p713
sg5
g6
sg7
(lp714
g480
asg9
S'./sarahs_inbox/parsed/msnbc/txt/10180.txt'
p715
sg10
g30
sg12
g31
sg32
g478
sba(i__main__
inode
p716
(dp717
g3
S'gov.sarah@yahoo.com -- Re AEA Director'
p718
sg5
g6
sg7
(lp719
g480
asg9
S'./sarahs_inbox/parsed/msnbc/txt/10181.txt'
p720
sg10
g30
sg12
g31
sg32
g370
sba(i__main__
inode
p721
(dp722
g3
S'gov.sarah@yahoo.com -- Re AK Right to Life Remarks'
p723
sg5
g6
sg7
(lp724
g480
asg9
S'./sarahs_inbox/parsed/msnbc/txt/10182.txt'
p725
sg10
g30
sg12
g31
sg32
S'10182.txt'
p726
sba(i__main__
inode
p727
(dp728
g3
S'gov.sarah@yahoo.com -- AEA Director'
p729
sg5
g6
sg7
(lp730
g480
asg9
S'./sarahs_inbox/parsed/msnbc/txt/10185.txt'
p731
sg10
g30
sg12
g31
sg32
g388
sba(i__main__
inode
p732
(dp733
g3
S'gov.sarah@yahoo.com -- Fw AEA tomorrow'
p734
sg5
g6
sg7
(lp735
g480
asg9
S'./sarahs_inbox/parsed/msnbc/txt/10187.txt'
p736
sg10
g30
sg12
g31
sg32
S'10187.txt'
p737
sbasg32
S'Topic: 6'
p738
sba(i__main__
inode
p739
(dp740
g3
S'contract, sep, state, told, pra, valley, prayer, service, said, dan'
p741
sg5
g6
sg7
(lp742
g14
asg9
g4
sg10
g23
sg12
(lp743
(i__main__
inode
p744
(dp745
g3
S'Fagerstrom, Erika (GOV) [/O=SOA/OU=FIRST ADMINISTRATIVE -- Water Pipe Replacement Cost'
p746
sg5
g6
sg7
(lp747
g739
asg9
S'./sarahs_inbox/parsed/msnbc/txt/1000.txt'
p748
sg10
g30
sg12
g31
sg32
S'1000.txt'
p749
sba(i__main__
inode
p750
(dp751
g3
S'Fagerstrom, Erika (GOV) [erika.fagerstrom@alaska.gov] -- Flight Information Friday, March 28th Travel Jnu-Anc. Fit. 67'
p752
sg5
g6
sg7
(lp753
g739
asg9
S'./sarahs_inbox/parsed/msnbc/txt/1004.txt'
p754
sg10
g30
sg12
g31
sg32
S'1004.txt'
p755
sba(i__main__
inode
p756
(dp757
g3
S'gov.sarah@yahoo.com -- Re School'
p758
sg5
g6
sg7
(lp759
g739
asg9
S'./sarahs_inbox/parsed/msnbc/txt/10180.txt'
p760
sg10
g30
sg12
g31
sg32
g478
sbasg32
S'Topic: 7'
p761
sba(i__main__
inode
p762
(dp763
g3
S'gas, alaska, oil, state, pipeline, agia, project, company, said, governor'
p764
sg5
g6
sg7
(lp765
g14
asg9
g4
sg10
g23
sg12
(lp766
(i__main__
inode
p767
(dp768
g3
S'Mason , Janice L (GOV) [/O=SOA/OU=FIRST ADMINISTRATIVE -- Scheduling'
p769
sg5
g6
sg7
(lp770
g762
asg9
S'./sarahs_inbox/parsed/msnbc/txt/10143.txt'
p771
sg10
g30
sg12
g31
sg32
g288
sba(i__main__
inode
p772
(dp773
g3
S'Leschper, Beth (GOV) [beth.leschper@alaska.gov] -- updated talking points'
p774
sg5
g6
sg7
(lp775
g762
asg9
S'./sarahs_inbox/parsed/msnbc/txt/10146.txt'
p776
sg10
g30
sg12
g31
sg32
S'10146.txt'
p777
sba(i__main__
inode
p778
(dp779
g3
S'Governor Sarah Palin (GOV sponsored) [governor@ alaska.gov] -- Voices Across Alaska State Budget Priorities'
p780
sg5
g6
sg7
(lp781
g762
asg9
S'./sarahs_inbox/parsed/msnbc/txt/10148.txt'
p782
sg10
g30
sg12
g31
sg32
S'10148.txt'
p783
sba(i__main__
inode
p784
(dp785
g3
S'Frye, Ivy J (DOA) [/O=SOA/OU=FIRST ADMINISTRATIVE GROUP/CN=RECIPIENTS/CN=IJFRYE] -- great letter to the editor from Phil Schneider'
p786
sg5
g6
sg7
(lp787
g762
asg9
S'./sarahs_inbox/parsed/msnbc/txt/10156.txt'
p788
sg10
g30
sg12
g31
sg32
S'10156.txt'
p789
sba(i__main__
inode
p790
(dp791
g3
S'gov.sarah@yahoo.com -- Re Conoco'
p792
sg5
g6
sg7
(lp793
g762
asg9
S'./sarahs_inbox/parsed/msnbc/txt/10168.txt'
p794
sg10
g30
sg12
g31
sg32
g334
sba(i__main__
inode
p795
(dp796
g3
S'gov.sarah@yahoo.com -- Re Conoco'
p797
sg5
g6
sg7
(lp798
g762
asg9
S'./sarahs_inbox/parsed/msnbc/txt/10169.txt'
p799
sg10
g30
sg12
g31
sg32
g340
sba(i__main__
inode
p800
(dp801
g3
S'gov.sarah@yahoo.com -- Re Conoco'
p802
sg5
g6
sg7
(lp803
g762
asg9
S'./sarahs_inbox/parsed/msnbc/txt/10183.txt'
p804
sg10
g30
sg12
g31
sg32
g376
sba(i__main__
inode
p805
(dp806
g3
S'Frye, Ivy J (DOA) [/O=SOA/OU=FIRST ADMINISTRATIVE -- Fw Conoco'
p807
sg5
g6
sg7
(lp808
g762
asg9
S'./sarahs_inbox/parsed/msnbc/txt/10186.txt'
p809
sg10
g30
sg12
g31
sg32
g394
sbasg32
S'Topic: 8'
p810
sba(i__main__
inode
p811
(dp812
g3
S'gov, privileged, personal, material, redacted, sharon, alaska, pra, leighow, sent'
p813
sg5
g6
sg7
(lp814
g14
asg9
g4
sg10
g23
sg12
(lp815
(i__main__
inode
p816
(dp817
g3
S'gov.sarah@yahoo.com -- Re PSA with Todd'
p818
sg5
g6
sg7
(lp819
g811
asg9
S'./sarahs_inbox/parsed/msnbc/txt/10109.txt'
p820
sg10
g30
sg12
g31
sg32
g51
sba(i__main__
inode
p821
(dp822
g3
S'Sarah Palin [gov.sarah@yahoo.com] -- Re AK Right to Life Remarks'
p823
sg5
g6
sg7
(lp824
g811
asg9
S'./sarahs_inbox/parsed/msnbc/txt/10120.txt'
p825
sg10
g30
sg12
g31
sg32
g525
sba(i__main__
inode
p826
(dp827
g3
S'gov.sarah@yahoo.com -- Re Welcome to WOW! - News'
p828
sg5
g6
sg7
(lp829
g811
asg9
S'./sarahs_inbox/parsed/msnbc/txt/10122.txt'
p830
sg10
g30
sg12
g31
sg32
S'10122.txt'
p831
sba(i__main__
inode
p832
(dp833
g3
S'Colberg, Talis J (LAW) [/O=SOA/OU=FIRST ADMINISTRATIVE -- Re Welcome to WOW! - News'
p834
sg5
g6
sg7
(lp835
g811
asg9
S'./sarahs_inbox/parsed/msnbc/txt/10123.txt'
p836
sg10
g30
sg12
g31
sg32
S'10123.txt'
p837
sba(i__main__
inode
p838
(dp839
g3
S'gov.sarah @yahoo.com -- Fw Welcome to WOW! - News'
p840
sg5
g6
sg7
(lp841
g811
asg9
S'./sarahs_inbox/parsed/msnbc/txt/10124.txt'
p842
sg10
g30
sg12
g31
sg32
S'10124.txt'
p843
sba(i__main__
inode
p844
(dp845
g3
S'PARNELL, S (GOV sponsored) [/O=SOA/OU=FIRST ADMINISTRATIVE -- Re Thinking out loud'
p846
sg5
g6
sg7
(lp847
g811
asg9
S'./sarahs_inbox/parsed/msnbc/txt/10127.txt'
p848
sg10
g30
sg12
g31
sg32
g231
sba(i__main__
inode
p849
(dp850
g3
S'gov.sarah@yahoo.com -- Re Welcome to WOW! - News'
p851
sg5
g6
sg7
(lp852
g811
asg9
S'./sarahs_inbox/parsed/msnbc/txt/10133.txt'
p853
sg10
g30
sg12
g31
sg32
g562
sba(i__main__
inode
p854
(dp855
g3
S'Colberg , Talis J (LAW) [/O=SOA/OU=FIRST ADMINISTRATIVE -- Re Welcome to WOW! - News'
p856
sg5
g6
sg7
(lp857
g811
asg9
S'./sarahs_inbox/parsed/msnbc/txt/10134.txt'
p858
sg10
g30
sg12
g31
sg32
g568
sba(i__main__
inode
p859
(dp860
g3
S'Colberg , Talis J (LAW) [/O=SOA/OU=FIRST ADMINISTRATIVE -- Re Welcome to WOW! - News'
p861
sg5
g6
sg7
(lp862
g811
asg9
S'./sarahs_inbox/parsed/msnbc/txt/10135.txt'
p863
sg10
g30
sg12
g31
sg32
g574
sba(i__main__
inode
p864
(dp865
g3
S'Morgan , Katryn L (GOV) [/O=SOA/OU=FIRST ADMINISTRATIVE -- AK Right to Life Remarks'
p866
sg5
g6
sg7
(lp867
g811
asg9
S'./sarahs_inbox/parsed/msnbc/txt/10145.txt'
p868
sg10
g30
sg12
g31
sg32
g300
sba(i__main__
inode
p869
(dp870
g3
S'Jackson, Karleen K (HSS) [karleen.jackson@aiaska.gov] -- RE Governors Budget Priorities Web Survey'
p871
sg5
g6
sg7
(lp872
g811
asg9
S'./sarahs_inbox/parsed/msnbc/txt/;10147.txt'
p873
sg10
g30
sg12
g31
sg32
S';10147.txt'
p874
sba(i__main__
inode
p875
(dp876
g3
S"Palin, Sarah (GOV sponsored ) [govpalin@alaska.gov] -- Re Murph O'brien"
p877
sg5
g6
sg7
(lp878
g811
asg9
S'./sarahs_inbox/parsed/msnbc/txt/10170.txt'
p879
sg10
g30
sg12
g31
sg32
S'10170.txt'
p880
sbasg32
S'Topic: 9'
p881
sba(i__main__
inode
p882
(dp883
g3
S'budget, project, karen, funding, cut, gov, capital, million, fund, request'
p884
sg5
g6
sg7
(lp885
g14
asg9
g4
sg10
g23
sg12
(lp886
(i__main__
inode
p887
(dp888
g3
S'Palin, Sarah (GOV sponsored) [govpalinalaska.gov] -- Re FYI'
p889
sg5
g6
sg7
(lp890
g882
asg9
S'./sarahs_inbox/parsed/msnbc/txt/10111.txt'
p891
sg10
g30
sg12
g31
sg32
S'10111.txt'
p892
sba(i__main__
inode
p893
(dp894
g3
S'John Katz jwkatz ALASKADC.org] -- Federal Funding/State Budget'
p895
sg5
g6
sg7
(lp896
g882
asg9
S'./sarahs_inbox/parsed/msnbc/txt/10144.txt'
p897
sg10
g30
sg12
g31
sg32
g294
sba(i__main__
inode
p898
(dp899
g3
S'Governor Sarah Palin (GOV sponsored) [governor@ alaska.gov] -- Voices Across Alaska State Budget Priorities'
p900
sg5
g6
sg7
(lp901
g882
asg9
S'./sarahs_inbox/parsed/msnbc/txt/10148.txt'
p902
sg10
g30
sg12
g31
sg32
g783
sba(i__main__
inode
p903
(dp904
g3
S'gov.sarah@yahoo.com -- Re Bridge DOT bond'
p905
sg5
g6
sg7
(lp906
g882
asg9
S'./sarahs_inbox/parsed/msnbc/txt/10163.txt'
p907
sg10
g30
sg12
g31
sg32
g641
sba(i__main__
inode
p908
(dp909
g3
S'Kris Norosz [KrisN@Icic[eSeafoods.com] -- Support for the UAF "fisheries" line item'
p910
sg5
g6
sg7
(lp911
g882
asg9
S'./sarahs_inbox/parsed/msnbc/txt/10166.txt'
p912
sg10
g30
sg12
g31
sg32
S'10166.txt'
p913
sba(i__main__
inode
p914
(dp915
g3
S'Rehfeld, Karen J (GOV) [/O=SOA/OU=FIRST ADMINISTRATIVE -- RE Support for the UAF "fisheries" line item'
p916
sg5
g6
sg7
(lp917
g882
asg9
S'./sarahs_inbox/parsed/msnbc/txt/10188.txt'
p918
sg10
g30
sg12
g31
sg32
S'10188.txt'
p919
sba(i__main__
inode
p920
(dp921
g3
S'Rehfeld, Karen J (GOV) [/O=SOA/OU=FIRST ADMINISTRATIVE -- RE Univ. of Alaska Funding - Fisheries'
p922
sg5
g6
sg7
(lp923
g882
asg9
S'./sarahs_inbox/parsed/msnbc/txt/10189.txt'
p924
sg10
g30
sg12
g31
sg32
S'10189.txt'
p925
sbasg32
S'Topic: 10'
p926
sba(i__main__
inode
p927
(dp928
g3
S'com, http, net, www, rep, laa, state, legis, exct, adn'
p929
sg5
g6
sg7
(lp930
g14
asg9
g4
sg10
g23
sg12
(lp931
(i__main__
inode
p932
(dp933
g3
S"Fagerstrom, Erika (GOV) [erika.fagerstrom@alaska.gov] -- RE FYI- RSVP Spouses' Luncheon Friday, March 28, 2008 1200 to 130pm."
p934
sg5
g6
sg7
(lp935
g927
asg9
S'./sarahs_inbox/parsed/msnbc/txt/;1006.txt'
p936
sg10
g30
sg12
g31
sg32
g45
sba(i__main__
inode
p937
(dp938
g3
S" -- Rep. Olson's Spouse not attending"
p939
sg5
g6
sg7
(lp940
g927
asg9
S'./sarahs_inbox/parsed/msnbc/txt/1008.txt'
p941
sg10
g30
sg12
g31
sg32
S'1008.txt'
p942
sba(i__main__
inode
p943
(dp944
g3
S'Linda Kovac [Ikovac@chugiakcouncil.org] -- Chugiak Community Council Request re Old Glenn Highway Project'
p945
sg5
g6
sg7
(lp946
g927
asg9
S'./sarahs_inbox/parsed/msnbc/txt/10160.txt'
p947
sg10
g30
sg12
g31
sg32
S'10160.txt'
p948
sbasg32
S'Topic: 11'
p949
sba(i__main__
inode
p950
(dp951
g3
S'erika, governor, alaska, roston, todd, house, fagerstrom, juneau, phone, thanks'
p952
sg5
g6
sg7
(lp953
g14
asg9
g4
sg10
g23
sg12
(lp954
(i__main__
inode
p955
(dp956
g3
S'Fagerstrom, Erika (GOV) [/O=SOA/OU=FIRST ADMINISTRATIVE -- Water Pipe Replacement Cost'
p957
sg5
g6
sg7
(lp958
g950
asg9
S'./sarahs_inbox/parsed/msnbc/txt/1000.txt'
p959
sg10
g30
sg12
g31
sg32
g749
sba(i__main__
inode
p960
(dp961
g3
S'Fagerstrom, Erika (GOV) [/O=SOA/OU=FIRST ADMINISTRATIVE -- Travel Fri. 3/28'
p962
sg5
g6
sg7
(lp963
g950
asg9
S'./sarahs_inbox/parsed/msnbc/txt/1002.txt'
p964
sg10
g30
sg12
g31
sg32
S'1002.txt'
p965
sba(i__main__
inode
p966
(dp967
g3
S'Fagerstrom, Erika (GOV) [/O=SOA/OU=FIRST ADMINISTRATIVE -- RE Romer'
p968
sg5
g6
sg7
(lp969
g950
asg9
S'./sarahs_inbox/parsed/msnbc/txt/1003.txt'
p970
sg10
g30
sg12
g31
sg32
g39
sba(i__main__
inode
p971
(dp972
g3
S'Fagerstrom, Erika (GOV) [erika.fagerstrom@alaska.gov] -- Flight Information Friday, March 28th Travel Jnu-Anc. Fit. 67'
p973
sg5
g6
sg7
(lp974
g950
asg9
S'./sarahs_inbox/parsed/msnbc/txt/1004.txt'
p975
sg10
g30
sg12
g31
sg32
g755
sba(i__main__
inode
p976
(dp977
g3
S'Fagerstrom, Erika (GOV) VO=SOA/OU=FIRST ADMINISTRATIVE -- Educ.Comm. Thompson- Request to attend Anchorage Mtg.on "Drop out issue" Fri. 4/18 (10-2pm.)'
p978
sg5
g6
sg7
(lp979
g950
asg9
S'./sarahs_inbox/parsed/msnbc/txt/1005.txt'
p980
sg10
g30
sg12
g31
sg32
g436
sba(i__main__
inode
p981
(dp982
g3
S"Fagerstrom, Erika (GOV) [erika.fagerstrom@alaska.gov] -- RE FYI- RSVP Spouses' Luncheon Friday, March 28, 2008 1200 to 130pm."
p983
sg5
g6
sg7
(lp984
g950
asg9
S'./sarahs_inbox/parsed/msnbc/txt/;1006.txt'
p985
sg10
g30
sg12
g31
sg32
g45
sba(i__main__
inode
p986
(dp987
g3
S'fek9wnr@yahoo.com -- Re Call'
p988
sg5
g6
sg7
(lp989
g950
asg9
S'./sarahs_inbox/parsed/msnbc/txt/1007.txt'
p990
sg10
g30
sg12
g31
sg32
S'1007.txt'
p991
sba(i__main__
inode
p992
(dp993
g3
S" -- Rep. Olson's Spouse not attending"
p994
sg5
g6
sg7
(lp995
g950
asg9
S'./sarahs_inbox/parsed/msnbc/txt/1008.txt'
p996
sg10
g30
sg12
g31
sg32
g942
sba(i__main__
inode
p997
(dp998
g3
S"Fagerstrom, Erika (GOV) [erika.fagerstrom@alaska.gov] -- Final RSVP List- Spouses' Luncheon 1200-130pm."
p999
sg5
g6
sg7
(lp1000
g950
asg9
S'./sarahs_inbox/parsed/msnbc/txt/1010.txt'
p1001
sg10
g30
sg12
g31
sg32
g189
sba(i__main__
inode
p1002
(dp1003
g3
S'Mason , Janice L (GOV) [/O=SOA/OU=FIRST ADMINISTRATIVE -- Luggage'
p1004
sg5
g6
sg7
(lp1005
g950
asg9
S'./sarahs_inbox/parsed/msnbc/txt/10115.txt'
p1006
sg10
g30
sg12
g31
sg32
g63
sba(i__main__
inode
p1007
(dp1008
g3
S'Fagerstrom, Erika (GOV) [/O=SOA/OU=FIRST ADMINISTRATIVE -- Flights'
p1009
sg5
g6
sg7
(lp1010
g950
asg9
S'./sarahs_inbox/parsed/msnbc/txt/1016.txt'
p1011
sg10
g30
sg12
g31
sg32
g129
sba(i__main__
inode
p1012
(dp1013
g3
S'Fagerstrom, Erika (GOV) [/O=SOA/OU=FIRST ADMINISTRATIVE -- Dates are TH 3/3 and F 3/4'
p1014
sg5
g6
sg7
(lp1015
g950
asg9
S'./sarahs_inbox/parsed/msnbc/txt/1017.txt'
p1016
sg10
g30
sg12
g31
sg32
g147
sba(i__main__
inode
p1017
(dp1018
g3
S'Perry, Kristina Y (GOV) [kris.perry@alaska.gov] -- Re Philadelphia'
p1019
sg5
g6
sg7
(lp1020
g950
asg9
S'./sarahs_inbox/parsed/msnbc/txt/1018.txt'
p1021
sg10
g30
sg12
g31
sg32
g710
sbasg32
S'Topic: 12'
p1022
sba(i__main__
inode
p1023
(dp1024
g3
S'yahoo, gov, ivy, com, sarah, frye, palin, unknown, office, state'
p1025
sg5
g6
sg7
(lp1026
g14
asg9
g4
sg10
g23
sg12
(lp1027
(i__main__
inode
p1028
(dp1029
g3
S'fek9wnr@yahoo.com -- Re Call'
p1030
sg5
g6
sg7
(lp1031
g1023
asg9
S'./sarahs_inbox/parsed/msnbc/txt/1007.txt'
p1032
sg10
g30
sg12
g31
sg32
g991
sba(i__main__
inode
p1033
(dp1034
g3
S" -- Rep. Olson's Spouse not attending"
p1035
sg5
g6
sg7
(lp1036
g1023
asg9
S'./sarahs_inbox/parsed/msnbc/txt/1008.txt'
p1037
sg10
g30
sg12
g31
sg32
g942
sba(i__main__
inode
p1038
(dp1039
g3
S'gov.sarah @yahoo.com -- CSI Alaska'
p1040
sg5
g6
sg7
(lp1041
g1023
asg9
S'./sarahs_inbox/parsed/msnbc/txt/10125.txt'
p1042
sg10
g30
sg12
g31
sg32
g531
sba(i__main__
inode
p1043
(dp1044
g3
S'gov.sarah@yahoo.com -- Re Thinking out loud'
p1045
sg5
g6
sg7
(lp1046
g1023
asg9
S'./sarahs_inbox/parsed/msnbc/txt/10128.txt'
p1047
sg10
g30
sg12
g31
sg32
g237
sba(i__main__
inode
p1048
(dp1049
g3
S'frank bailey [ftb907@yahoo.com] -- Le Ear'
p1050
sg5
g6
sg7
(lp1051
g1023
asg9
S'./sarahs_inbox/parsed/msnbc/txt/;1013.txt'
p1052
sg10
g30
sg12
g31
sg32
S';1013.txt'
p1053
sba(i__main__
inode
p1054
(dp1055
g3
S'gov.sarah@yahoo.com -- Re Present from paulette'
p1056
sg5
g6
sg7
(lp1057
g1023
asg9
S'./sarahs_inbox/parsed/msnbc/txt/10136.txt'
p1058
sg10
g30
sg12
g31
sg32
g266
sba(i__main__
inode
p1059
(dp1060
g3
S'Frye, Ivy J (DOA) [/O=SOA/OU=FIRST ADMINISTRATIVE -- Present from paulette'
p1061
sg5
g6
sg7
(lp1062
g1023
asg9
S'./sarahs_inbox/parsed/msnbc/txt/10138.txt'
p1063
sg10
g30
sg12
g31
sg32
g81
sba(i__main__
inode
p1064
(dp1065
g3
S'Frye, Ivy J (DOA) [/O=SOA/OU=FIRST ADMINISTRATIVE -- Fw Psea ads'
p1066
sg5
g6
sg7
(lp1067
g1023
asg9
S'./sarahs_inbox/parsed/msnbc/txt/1014.txt'
p1068
sg10
g30
sg12
g31
sg32
g93
sba(i__main__
inode
p1069
(dp1070
g3
S'Frye, Ivy J (DOA) [/O=SOA/OU=FIRST ADMINISTRATIVE GROUP/CN=RECIPIENTS/CN=IJFRYEI -- FW empire'
p1071
sg5
g6
sg7
(lp1072
g1023
asg9
S'./sarahs_inbox/parsed/msnbc/txt/1015.txt'
p1073
sg10
g30
sg12
g31
sg32
g111
sba(i__main__
inode
p1074
(dp1075
g3
S'Sarah Palin [ gov.sarah @yahoo.com] -- Re Happy Thanksgiving!'
p1076
sg5
g6
sg7
(lp1077
g1023
asg9
S'./sarahs_inbox/parsed/msnbc/txt/10159.txt'
p1078
sg10
g30
sg12
g31
sg32
g318
sba(i__main__
inode
p1079
(dp1080
g3
S'Frye, Ivy J (DOA) [/O=SOA/OU=FIRST ADMINISTRATIVE -- Car trouble'
p1081
sg5
g6
sg7
(lp1082
g1023
asg9
S'./sarahs_inbox/parsed/msnbc/txt/10162.txt'
p1083
sg10
g30
sg12
g31
sg32
g135
sba(i__main__
inode
p1084
(dp1085
g3
S'Frye, Ivy J (DOA) [/O=SOA/OU=FIRST ADMINISTRATIVE -- Re Happy Thanksgiving!'
p1086
sg5
g6
sg7
(lp1087
g1023
asg9
S'./sarahs_inbox/parsed/msnbc/txt/10164.txt'
p1088
sg10
g30
sg12
g31
sg32
g141
sba(i__main__
inode
p1089
(dp1090
g3
S'Fagerstrom, Erika (GOV) [/O=SOA/OU=FIRST ADMINISTRATIVE -- Dates are TH 3/3 and F 3/4'
p1091
sg5
g6
sg7
(lp1092
g1023
asg9
S'./sarahs_inbox/parsed/msnbc/txt/1017.txt'
p1093
sg10
g30
sg12
g31
sg32
g147
sba(i__main__
inode
p1094
(dp1095
g3
S"Palin, Sarah (GOV sponsored ) [govpalin@alaska.gov] -- Re Murph O'brien"
p1096
sg5
g6
sg7
(lp1097
g1023
asg9
S'./sarahs_inbox/parsed/msnbc/txt/10170.txt'
p1098
sg10
g30
sg12
g31
sg32
g880
sbasg32
S'Topic: 13'
p1099
sba(i__main__
inode
p1100
(dp1101
g3
S'law, talis, state, court, email, attorney, page, governor, palin, question'
p1102
sg5
g6
sg7
(lp1103
g14
asg9
g4
sg10
g23
sg12
(lp1104
(i__main__
inode
p1105
(dp1106
g3
S'Frye, Ivy J (DOA) [/O=SOA/OU=FIRST ADMINISTRATIVE -- Fw Cell phone reimbursement'
p1107
sg5
g6
sg7
(lp1108
g1100
asg9
S'./sarahs_inbox/parsed/msnbc/txt/1001.txt'
p1109
sg10
g30
sg12
g31
sg32
g171
sba(i__main__
inode
p1110
(dp1111
g3
S'gov.sarah@yahoo.com -- Re Preparation and roll-out related to filing of lawsuit against Mercer'
p1112
sg5
g6
sg7
(lp1113
g1100
asg9
S'./sarahs_inbox/parsed/msnbc/txt/10112.txt'
p1114
sg10
g30
sg12
g31
sg32
g418
sba(i__main__
inode
p1115
(dp1116
g3
S'Sarah Palin [gov.sarah@yahoo.com] -- Re AK Right to Life Remarks'
p1117
sg5
g6
sg7
(lp1118
g1100
asg9
S'./sarahs_inbox/parsed/msnbc/txt/10120.txt'
p1119
sg10
g30
sg12
g31
sg32
g525
sba(i__main__
inode
p1120
(dp1121
g3
S"Leschper, Beth (GOV) [beth.leschper@alaska.gov] -- Governor's Budget Priorities Web Survey"
p1122
sg5
g6
sg7
(lp1123
g1100
asg9
S'./sarahs_inbox/parsed/msnbc/txt/10121.txt'
p1124
sg10
g30
sg12
g31
sg32
S'10121.txt'
p1125
sba(i__main__
inode
p1126
(dp1127
g3
S'gov.sarah@yahoo.com -- Re Welcome to WOW! - News'
p1128
sg5
g6
sg7
(lp1129
g1100
asg9
S'./sarahs_inbox/parsed/msnbc/txt/10122.txt'
p1130
sg10
g30
sg12
g31
sg32
g831
sba(i__main__
inode
p1131
(dp1132
g3
S'Colberg, Talis J (LAW) [/O=SOA/OU=FIRST ADMINISTRATIVE -- Re Welcome to WOW! - News'
p1133
sg5
g6
sg7
(lp1134
g1100
asg9
S'./sarahs_inbox/parsed/msnbc/txt/10123.txt'
p1135
sg10
g30
sg12
g31
sg32
g837
sba(i__main__
inode
p1136
(dp1137
g3
S'gov.sarah @yahoo.com -- Fw Welcome to WOW! - News'
p1138
sg5
g6
sg7
(lp1139
g1100
asg9
S'./sarahs_inbox/parsed/msnbc/txt/10124.txt'
p1140
sg10
g30
sg12
g31
sg32
g843
sba(i__main__
inode
p1141
(dp1142
g3
S'gov.sarah@yahoo.com -- Re Welcome to WOW! - News'
p1143
sg5
g6
sg7
(lp1144
g1100
asg9
S'./sarahs_inbox/parsed/msnbc/txt/10133.txt'
p1145
sg10
g30
sg12
g31
sg32
g562
sba(i__main__
inode
p1146
(dp1147
g3
S'Colberg , Talis J (LAW) [/O=SOA/OU=FIRST ADMINISTRATIVE -- Re Welcome to WOW! - News'
p1148
sg5
g6
sg7
(lp1149
g1100
asg9
S'./sarahs_inbox/parsed/msnbc/txt/10134.txt'
p1150
sg10
g30
sg12
g31
sg32
g568
sba(i__main__
inode
p1151
(dp1152
g3
S'Colberg , Talis J (LAW) [/O=SOA/OU=FIRST ADMINISTRATIVE -- Re Welcome to WOW! - News'
p1153
sg5
g6
sg7
(lp1154
g1100
asg9
S'./sarahs_inbox/parsed/msnbc/txt/10135.txt'
p1155
sg10
g30
sg12
g31
sg32
g574
sba(i__main__
inode
p1156
(dp1157
g3
S'PARNELL, S (GOV sponsored) [/O=SOA/OU=FIRST ADMINISTRATIVE -- Kenai River Regs'
p1158
sg5
g6
sg7
(lp1159
g1100
asg9
S'./sarahs_inbox/parsed/msnbc/txt/10141.txt'
p1160
sg10
g30
sg12
g31
sg32
S'10141.txt'
p1161
sba(i__main__
inode
p1162
(dp1163
g3
S'Morgan, Katryn L (GOV) [/O=SOA/OU=FIRST ADMINISTRATIVE -- AK Right to Life Remarks'
p1164
sg5
g6
sg7
(lp1165
g1100
asg9
S'./sarahs_inbox/parsed/msnbc/txt/10151.txt'
p1166
sg10
g30
sg12
g31
sg32
g117
sba(i__main__
inode
p1167
(dp1168
g3
S'gov.sarah@yahoo.com -- Re AK Right to Life Remarks'
p1169
sg5
g6
sg7
(lp1170
g1100
asg9
S'./sarahs_inbox/parsed/msnbc/txt/10154.txt'
p1171
sg10
g30
sg12
g31
sg32
g625
sba(i__main__
inode
p1172
(dp1173
g3
S'Colberg, Tails J (LAW) [/O=SOA/OU=FIRST ADMINISTRATIVE -- Today.'
p1174
sg5
g6
sg7
(lp1175
g1100
asg9
S'./sarahs_inbox/parsed/msnbc/txt/10155.txt'
p1176
sg10
g30
sg12
g31
sg32
g123
sba(i__main__
inode
p1177
(dp1178
g3
S'gov.sarah@yahoo.com -- Re Ethics training lacks a final test'
p1179
sg5
g6
sg7
(lp1180
g1100
asg9
S'./sarahs_inbox/parsed/msnbc/txt/10161.txt'
p1181
sg10
g30
sg12
g31
sg32
S'10161.txt'
p1182
sba(i__main__
inode
p1183
(dp1184
g3
S'Kreitzer, Annette E (DOA) [/O=SOA/OU=FIRST ADMINISTRATIVE -- FW Ethics training lacks a final test'
p1185
sg5
g6
sg7
(lp1186
g1100
asg9
S'./sarahs_inbox/parsed/msnbc/txt/10165.txt'
p1187
sg10
g30
sg12
g31
sg32
S'10165.txt'
p1188
sba(i__main__
inode
p1189
(dp1190
g3
S'gov.sarah@yahoo.com -- Re AK Right to Life Remarks'
p1191
sg5
g6
sg7
(lp1192
g1100
asg9
S'./sarahs_inbox/parsed/msnbc/txt/10182.txt'
p1193
sg10
g30
sg12
g31
sg32
g726
sbasg32
S'Topic: 14'
p1194
sba(i__main__
inode
p1195
(dp1196
g3
S'state, alaska, year, public, land, would, department, area, people, trooper'
p1197
sg5
g6
sg7
(lp1198
g14
asg9
g4
sg10
g23
sg12
(lp1199
(i__main__
inode
p1200
(dp1201
g3
S'Frye, Ivy J (DOA) [/O=SOA/OU=FIRST ADMINISTRATIVE -- Re Fwd Support PR Campaign from Trooper President'
p1202
sg5
g6
sg7
(lp1203
g1195
asg9
S'./sarahs_inbox/parsed/msnbc/txt/1011.txt'
p1204
sg10
g30
sg12
g31
sg32
g195
sba(i__main__
inode
p1205
(dp1206
g3
S'Palin, Sarah (GOV sponsored) [govpalinalaska.gov] -- Re FYI'
p1207
sg5
g6
sg7
(lp1208
g1195
asg9
S'./sarahs_inbox/parsed/msnbc/txt/10111.txt'
p1209
sg10
g30
sg12
g31
sg32
g892
sba(i__main__
inode
p1210
(dp1211
g3
S'Mason , Janice L (GOV) [/O=SOA/OU=FIRST ADMINISTRATIVE -- Luggage'
p1212
sg5
g6
sg7
(lp1213
g1195
asg9
S'./sarahs_inbox/parsed/msnbc/txt/10119.txt'
p1214
sg10
g30
sg12
g31
sg32
g177
sba(i__main__
inode
p1215
(dp1216
g3
S'ftb907@yahoo.com -- Re Fwd Support PR Campaign from Trooper President'
p1217
sg5
g6
sg7
(lp1218
g1195
asg9
S'./sarahs_inbox/parsed/msnbc/txt/1012.txt'
p1219
sg10
g30
sg12
g31
sg32
g225
sba(i__main__
inode
p1220
(dp1221
g3
S'gov.sarah @yahoo.com -- CSI Alaska'
p1222
sg5
g6
sg7
(lp1223
g1195
asg9
S'./sarahs_inbox/parsed/msnbc/txt/10125.txt'
p1224
sg10
g30
sg12
g31
sg32
g531
sba(i__main__
inode
p1225
(dp1226
g3
S'Governor Sarah Palin (GOV sponsored) [govemor@alaska.gov] -- RE Other'
p1227
sg5
g6
sg7
(lp1228
g1195
asg9
S'./sarahs_inbox/parsed/msnbc/txt/10126.txt'
p1229
sg10
g30
sg12
g31
sg32
g424
sba(i__main__
inode
p1230
(dp1231
g3
S'PARNELL, S (GOV sponsored) [/O=SOA/OU=FIRST ADMINISTRATIVE -- Kenai River Regs'
p1232
sg5
g6
sg7
(lp1233
g1195
asg9
S'./sarahs_inbox/parsed/msnbc/txt/10141.txt'
p1234
sg10
g30
sg12
g31
sg32
g1161
sba(i__main__
inode
p1235
(dp1236
g3
S'Von Scheben, Leo (DOT) [/O=SOA/OU=FIRST ADMINISTRATIVE -- FW Aleknagik'
p1237
sg5
g6
sg7
(lp1238
g1195
asg9
S'./sarahs_inbox/parsed/msnbc/txt/10150.txt'
p1239
sg10
g30
sg12
g31
sg32
S'10150.txt'
p1240
sba(i__main__
inode
p1241
(dp1242
g3
S'gov.sarah@yahoo.com -- Re Bridge DOT bond'
p1243
sg5
g6
sg7
(lp1244
g1195
asg9
S'./sarahs_inbox/parsed/msnbc/txt/10163.txt'
p1245
sg10
g30
sg12
g31
sg32
g641
sbasg32
S'Topic: 15'
p1246
sba(i__main__
inode
p1247
(dp1248
g3
S'gov, alaska, nizich, talis, mike, colberg, michael, john, sean, sponsored'
p1249
sg5
g6
sg7
(lp1250
g14
asg9
g4
sg10
g23
sg12
(lp1251
(i__main__
inode
p1252
(dp1253
g3
S"Leschper, Beth (GOV) [beth.leschper@alaska.gov] -- Governor's Budget Priorities Web Survey"
p1254
sg5
g6
sg7
(lp1255
g1247
asg9
S'./sarahs_inbox/parsed/msnbc/txt/10121.txt'
p1256
sg10
g30
sg12
g31
sg32
g1125
sba(i__main__
inode
p1257
(dp1258
g3
S'PARNELL, S (GOV sponsored) [/O=SOA/OU=FIRST ADMINISTRATIVE -- Thinking out loud'
p1259
sg5
g6
sg7
(lp1260
g1247
asg9
S'./sarahs_inbox/parsed/msnbc/txt/10129.txt'
p1261
sg10
g30
sg12
g31
sg32
g75
sba(i__main__
inode
p1262
(dp1263
g3
S'Jackson, Karleen K (HSS) [karleen.jackson@aiaska.gov] -- RE Governors Budget Priorities Web Survey'
p1264
sg5
g6
sg7
(lp1265
g1247
asg9
S'./sarahs_inbox/parsed/msnbc/txt/;10147.txt'
p1266
sg10
g30
sg12
g31
sg32
g874
sba(i__main__
inode
p1267
(dp1268
g3
S"Lloyd, Denby S (DFG) [/O=SOA/OU=FIRST ADMINISTRATIVE -- RE Governor's Budget Priorities Web Survey"
p1269
sg5
g6
sg7
(lp1270
g1247
asg9
S'./sarahs_inbox/parsed/msnbc/txt/10153.txt'
p1271
sg10
g30
sg12
g31
sg32
S'10153.txt'
p1272
sba(i__main__
inode
p1273
(dp1274
g3
S'gov.sarah@yahoo.com -- Re Scheduling'
p1275
sg5
g6
sg7
(lp1276
g1247
asg9
S'./sarahs_inbox/parsed/msnbc/txt/10171.txt'
p1277
sg10
g30
sg12
g31
sg32
g472
sbasg32
S'Topic: 16'
p1278
sba(i__main__
inode
p1279
(dp1280
g3
S'alaska, school, state, program, education, student, www, information, year, award'
p1281
sg5
g6
sg7
(lp1282
g14
asg9
g4
sg10
g23
sg12
(lp1283
(i__main__
inode
p1284
(dp1285
g3
S'Bailey, Frank T (GOV) [/O=SOA/OU=FIRST ADMINISTRATIVE -- FW Correction PR 08-044a Governor Palin Appoints to Suicide Prevention Council 032708'
p1286
sg5
g6
sg7
(lp1287
g1279
asg9
S'./sarahs_inbox/parsed/msnbc/txt/1009.txt'
p1288
sg10
g30
sg12
g31
sg32
S'1009.txt'
p1289
sba(i__main__
inode
p1290
(dp1291
g3
S'Mason , Janice L (GOV) [/O=SOA/OU=FIRST ADMINISTRATIVE -- RE Military_and_VeteransAffairs'
p1292
sg5
g6
sg7
(lp1293
g1279
asg9
S'./sarahs_inbox/parsed/msnbc/txt/10114.txt'
p1294
sg10
g30
sg12
g31
sg32
g207
sba(i__main__
inode
p1295
(dp1296
g3
S"Leschper, Beth (GOV) [beth.leschper@alaska.gov] -- Governor's Budget Priorities Web Survey"
p1297
sg5
g6
sg7
(lp1298
g1279
asg9
S'./sarahs_inbox/parsed/msnbc/txt/10121.txt'
p1299
sg10
g30
sg12
g31
sg32
g1125
sba(i__main__
inode
p1300
(dp1301
g3
S'gov. sarah@yahoo.com -- Re Telephone Calls - Drop Out Students'
p1302
sg5
g6
sg7
(lp1303
g1279
asg9
S'./sarahs_inbox/parsed/msnbc/txt/10132.txt'
p1304
sg10
g30
sg12
g31
sg32
g260
sba(i__main__
inode
p1305
(dp1306
g3
S'Mason, Janice L (GOV) [/O=SOA/OU=FIRST ADMINISTRATIVE -- Telephone Calls - Drop Out Students'
p1307
sg5
g6
sg7
(lp1308
g1279
asg9
S'./sarahs_inbox/parsed/msnbc/txt/10142.txt'
p1309
sg10
g30
sg12
g31
sg32
g105
sba(i__main__
inode
p1310
(dp1311
g3
S'Leschper, Beth (GOV) [beth.leschper@alaska.gov] -- updated talking points'
p1312
sg5
g6
sg7
(lp1313
g1279
asg9
S'./sarahs_inbox/parsed/msnbc/txt/10146.txt'
p1314
sg10
g30
sg12
g31
sg32
g777
sba(i__main__
inode
p1315
(dp1316
g3
S'Jackson, Karleen K (HSS) [karleen.jackson@aiaska.gov] -- RE Governors Budget Priorities Web Survey'
p1317
sg5
g6
sg7
(lp1318
g1279
asg9
S'./sarahs_inbox/parsed/msnbc/txt/;10147.txt'
p1319
sg10
g30
sg12
g31
sg32
g874
sba(i__main__
inode
p1320
(dp1321
g3
S'Governor Sarah Palin (GOV sponsored) [governor@ alaska.gov] -- Voices Across Alaska State Budget Priorities'
p1322
sg5
g6
sg7
(lp1323
g1279
asg9
S'./sarahs_inbox/parsed/msnbc/txt/10148.txt'
p1324
sg10
g30
sg12
g31
sg32
g783
sba(i__main__
inode
p1325
(dp1326
g3
S'gov.sarah@yahoo.com -- Re Ethics training lacks a final test'
p1327
sg5
g6
sg7
(lp1328
g1279
asg9
S'./sarahs_inbox/parsed/msnbc/txt/10161.txt'
p1329
sg10
g30
sg12
g31
sg32
g1182
sba(i__main__
inode
p1330
(dp1331
g3
S'Kreitzer, Annette E (DOA) [/O=SOA/OU=FIRST ADMINISTRATIVE -- FW Ethics training lacks a final test'
p1332
sg5
g6
sg7
(lp1333
g1279
asg9
S'./sarahs_inbox/parsed/msnbc/txt/10165.txt'
p1334
sg10
g30
sg12
g31
sg32
g1188
sba(i__main__
inode
p1335
(dp1336
g3
S'Kris Norosz [KrisN@Icic[eSeafoods.com] -- Support for the UAF "fisheries" line item'
p1337
sg5
g6
sg7
(lp1338
g1279
asg9
S'./sarahs_inbox/parsed/msnbc/txt/10166.txt'
p1339
sg10
g30
sg12
g31
sg32
g913
sba(i__main__
inode
p1340
(dp1341
g3
S'Rehfeld, Karen J (GOV) [/O=SOA/OU=FIRST ADMINISTRATIVE -- RE Support for the UAF "fisheries" line item'
p1342
sg5
g6
sg7
(lp1343
g1279
asg9
S'./sarahs_inbox/parsed/msnbc/txt/10188.txt'
p1344
sg10
g30
sg12
g31
sg32
g919
sba(i__main__
inode
p1345
(dp1346
g3
S'Rehfeld, Karen J (GOV) [/O=SOA/OU=FIRST ADMINISTRATIVE -- RE Univ. of Alaska Funding - Fisheries'
p1347
sg5
g6
sg7
(lp1348
g1279
asg9
S'./sarahs_inbox/parsed/msnbc/txt/10189.txt'
p1349
sg10
g30
sg12
g31
sg32
g925
sbasg32
S'Topic: 17'
p1350
sba(i__main__
inode
p1351
(dp1352
g3
S'org, email, gov, alaskadc, john, address, state, jwkatz, katz, tibbles'
p1353
sg5
g6
sg7
(lp1354
g14
asg9
g4
sg10
g23
sg12
(lp1355
(i__main__
inode
p1356
(dp1357
g3
S'John Katz jwkatz ALASKADC.org] -- Federal Funding/State Budget'
p1358
sg5
g6
sg7
(lp1359
g1351
asg9
S'./sarahs_inbox/parsed/msnbc/txt/10144.txt'
p1360
sg10
g30
sg12
g31
sg32
g294
sba(i__main__
inode
p1361
(dp1362
g3
S'gov.sarah@yahoo.com -- Fw AEA tomorrow'
p1363
sg5
g6
sg7
(lp1364
g1351
asg9
S'./sarahs_inbox/parsed/msnbc/txt/10187.txt'
p1365
sg10
g30
sg12
g31
sg32
g737
sbasg32
S'Topic: 18'
p1366
sba(i__main__
inode
p1367
(dp1368
g3
S'business, waste, million, company, market, energy, page, new, climate, change'
p1369
sg5
g6
sg7
(lp1370
g14
asg9
g4
sg10
g23
sg12
(lp1371
(i__main__
inode
p1372
(dp1373
g3
S'Von Scheben, Leo (DOT) [/O=SOA/OU=FIRST ADMINISTRATIVE -- FW Aleknagik'
p1374
sg5
g6
sg7
(lp1375
g1367
asg9
S'./sarahs_inbox/parsed/msnbc/txt/10150.txt'
p1376
sg10
g30
sg12
g31
sg32
g1240
sba(i__main__
inode
p1377
(dp1378
g3
S'Leschper, Beth (GOV) [beth.Ieschper@alaska.gov] -- Remarks for AEA Railbelt Conf'
p1379
sg5
g6
sg7
(lp1380
g1367
asg9
S'./sarahs_inbox/parsed/msnbc/txt/10157.txt'
p1381
sg10
g30
sg12
g31
sg32
S'10157.txt'
p1382
sbasg32
S'Topic: 19'
p1383
sba(i__main__
inode
p1384
(dp1385
g3
S'issue, pra, one, know, sent, call, asked, said, need, letter'
p1386
sg5
g6
sg7
(lp1387
g14
asg9
g4
sg10
g23
sg12
(lp1388
(i__main__
inode
p1389
(dp1390
g3
S'Frye, Ivy J (DOA) [/O=SOA/OU=FIRST ADMINISTRATIVE -- Fw Psea ads'
p1391
sg5
g6
sg7
(lp1392
g1384
asg9
S'./sarahs_inbox/parsed/msnbc/txt/1014.txt'
p1393
sg10
g30
sg12
g31
sg32
g93
sba(i__main__
inode
p1394
(dp1395
g3
S'Frye, Ivy J (DOA) [/O=SOA/OU=FIRST ADMINISTRATIVE GROUP/CN=RECIPIENTS/CN=IJFRYEI -- FW empire'
p1396
sg5
g6
sg7
(lp1397
g1384
asg9
S'./sarahs_inbox/parsed/msnbc/txt/1015.txt'
p1398
sg10
g30
sg12
g31
sg32
g111
sba(i__main__
inode
p1399
(dp1400
g3
S'gov.sarah@yahoo.com -- Re Ethics training lacks a final test'
p1401
sg5
g6
sg7
(lp1402
g1384
asg9
S'./sarahs_inbox/parsed/msnbc/txt/10161.txt'
p1403
sg10
g30
sg12
g31
sg32
g1182
sba(i__main__
inode
p1404
(dp1405
g3
S'Kreitzer, Annette E (DOA) [/O=SOA/OU=FIRST ADMINISTRATIVE -- FW Ethics training lacks a final test'
p1406
sg5
g6
sg7
(lp1407
g1384
asg9
S'./sarahs_inbox/parsed/msnbc/txt/10165.txt'
p1408
sg10
g30
sg12
g31
sg32
g1188
sba(i__main__
inode
p1409
(dp1410
g3
S'gov.sarah@yahoo.com -- Ktuu'
p1411
sg5
g6
sg7
(lp1412
g1384
asg9
S'./sarahs_inbox/parsed/msnbc/txt/10167.txt'
p1413
sg10
g30
sg12
g31
sg32
g647
sba(i__main__
inode
p1414
(dp1415
g3
S'PARNELL, S (GOV sponsored) [/O=SOA/OU=FIRST ADMINISTRATIVE -- Re Fagan'
p1416
sg5
g6
sg7
(lp1417
g1384
asg9
S'./sarahs_inbox/parsed/msnbc/txt/10172.txt'
p1418
sg10
g30
sg12
g31
sg32
g346
sba(i__main__
inode
p1419
(dp1420
g3
S'gov.sarah @yahoo.com -- Re Fagan'
p1421
sg5
g6
sg7
(lp1422
g1384
asg9
S'./sarahs_inbox/parsed/msnbc/txt/10173.txt'
p1423
sg10
g30
sg12
g31
sg32
g352
sba(i__main__
inode
p1424
(dp1425
g3
S'PARNELL, S (GOV sponsored) [/O=SOA/OU=FIRST ADMINISTRATIVE -- Re Fagan'
p1426
sg5
g6
sg7
(lp1427
g1384
asg9
S'./sarahs_inbox/parsed/msnbc/txt/10174.txt'
p1428
sg10
g30
sg12
g31
sg32
g358
sba(i__main__
inode
p1429
(dp1430
g3
S'gov.sarah@yahoo.com -- Re Fagan'
p1431
sg5
g6
sg7
(lp1432
g1384
asg9
S'./sarahs_inbox/parsed/msnbc/txt/10175.txt'
p1433
sg10
g30
sg12
g31
sg32
g364
sba(i__main__
inode
p1434
(dp1435
g3
S'PARNELL, S (GOV sponsored) [/O=SOA/OU=FIRST ADMINISTRATIVE -- Re Fagan'
p1436
sg5
g6
sg7
(lp1437
g1384
asg9
S'./sarahs_inbox/parsed/msnbc/txt/10176.txt'
p1438
sg10
g30
sg12
g31
sg32
g153
sba(i__main__
inode
p1439
(dp1440
g3
S'gov.sarah@yahoo.com -- Fagan'
p1441
sg5
g6
sg7
(lp1442
g1384
asg9
S'./sarahs_inbox/parsed/msnbc/txt/10177.txt'
p1443
sg10
g30
sg12
g31
sg32
g693
sba(i__main__
inode
p1444
(dp1445
g3
S'gov.sarah@yahoo.com -- Re Conoco'
p1446
sg5
g6
sg7
(lp1447
g1384
asg9
S'./sarahs_inbox/parsed/msnbc/txt/10183.txt'
p1448
sg10
g30
sg12
g31
sg32
g376
sba(i__main__
inode
p1449
(dp1450
g3
S'Frye, Ivy J (DOA) [/O=SOA/OU=FIRST ADMINISTRATIVE -- Fw Conoco'
p1451
sg5
g6
sg7
(lp1452
g1384
asg9
S'./sarahs_inbox/parsed/msnbc/txt/10186.txt'
p1453
sg10
g30
sg12
g31
sg32
g394
sba(i__main__
inode
p1454
(dp1455
g3
S'gov.sarah@yahoo.com -- Fw AEA tomorrow'
p1456
sg5
g6
sg7
(lp1457
g1384
asg9
S'./sarahs_inbox/parsed/msnbc/txt/10187.txt'
p1458
sg10
g30
sg12
g31
sg32
g737
sbasg32
S'Topic: 20'
p1459
sba(i__main__
inode
p1460
(dp1461
g3
S'governor, palin, message, alaska, address, sarah, thank, gov, mail, sent'
p1462
sg5
g6
sg7
(lp1463
g14
asg9
g4
sg10
g23
sg12
(lp1464
(i__main__
inode
p1465
(dp1466
g3
S"Governor Sarah Palin (GOV sponsored) [governor@alaska.govj -- FW George Brown's granddaughter"
p1467
sg5
g6
sg7
(lp1468
g1460
asg9
S'./sarahs_inbox/parsed/msnbc/txt/10110.txt'
p1469
sg10
g30
sg12
g31
sg32
g201
sba(i__main__
inode
p1470
(dp1471
g3
S'Mason , Janice L (GOV) I/O=SOA/OU=FIRST ADMINISTRATIVE -- RE Military_and Veterans_Affairs'
p1472
sg5
g6
sg7
(lp1473
g1460
asg9
S'./sarahs_inbox/parsed/msnbc/txt/10113.txt'
p1474
sg10
g30
sg12
g31
sg32
g57
sba(i__main__
inode
p1475
(dp1476
g3
S'Governor Sarah Palin (GOV sponsored) [govemor@alaska.gov] -- RE Other'
p1477
sg5
g6
sg7
(lp1478
g1460
asg9
S'./sarahs_inbox/parsed/msnbc/txt/10126.txt'
p1479
sg10
g30
sg12
g31
sg32
g424
sba(i__main__
inode
p1480
(dp1481
g3
S'Governor Sarah Palin (GOV sponsored) [govemor@alaska.gov] -- RE Health-Care'
p1482
sg5
g6
sg7
(lp1483
g1460
asg9
S'./sarahs_inbox/parsed/msnbc/txt/10149.txt'
p1484
sg10
g30
sg12
g31
sg32
g306
sba(i__main__
inode
p1485
(dp1486
g3
S"Lloyd, Denby S (DFG) [/O=SOA/OU=FIRST ADMINISTRATIVE -- RE Governor's Budget Priorities Web Survey"
p1487
sg5
g6
sg7
(lp1488
g1460
asg9
S'./sarahs_inbox/parsed/msnbc/txt/10153.txt'
p1489
sg10
g30
sg12
g31
sg32
g1272
sba(i__main__
inode
p1490
(dp1491
g3
S'gov.sarah@yahoo.com -- Re AK Right to Life Remarks'
p1492
sg5
g6
sg7
(lp1493
g1460
asg9
S'./sarahs_inbox/parsed/msnbc/txt/10154.txt'
p1494
sg10
g30
sg12
g31
sg32
g625
sba(i__main__
inode
p1495
(dp1496
g3
S'Governor Sarah Palin (GOV sponsored) [governor@alaska.gov] -- RE Military_and_Veterans_Affairs'
p1497
sg5
g6
sg7
(lp1498
g1460
asg9
S'./sarahs_inbox/parsed/msnbc/txt/10158.txt'
p1499
sg10
g30
sg12
g31
sg32
g406
sba(i__main__
inode
p1500
(dp1501
g3
S'Sarah Palin [ gov.sarah @yahoo.com] -- Re Happy Thanksgiving!'
p1502
sg5
g6
sg7
(lp1503
g1460
asg9
S'./sarahs_inbox/parsed/msnbc/txt/10159.txt'
p1504
sg10
g30
sg12
g31
sg32
g318
sba(i__main__
inode
p1505
(dp1506
g3
S'gov.sarah@yahoo.com -- Re AK Right to Life Remarks'
p1507
sg5
g6
sg7
(lp1508
g1460
asg9
S'./sarahs_inbox/parsed/msnbc/txt/10182.txt'
p1509
sg10
g30
sg12
g31
sg32
g726
sba(i__main__
inode
p1510
(dp1511
g3
S'Governor Sarah Palin (GOV sponsored) [governor@alaska.gov] -- RE Health-Care'
p1512
sg5
g6
sg7
(lp1513
g1460
asg9
S'./sarahs_inbox/parsed/msnbc/txt/10184.txt'
p1514
sg10
g30
sg12
g31
sg32
g382
sbasg32
S'Topic: 21'
p1515
sba(i__main__
inode
p1516
(dp1517
g3
S'alaska, fish, game, fishery, state, subsistence, board, hunting, fishing, food'
p1518
sg5
g6
sg7
(lp1519
g14
asg9
g4
sg10
g23
sg12
(lp1520
(i__main__
inode
p1521
(dp1522
g3
S'Bailey, Frank T (GOV) [/O=SOA/OU=FIRST ADMINISTRATIVE -- FW Correction PR 08-044a Governor Palin Appoints to Suicide Prevention Council 032708'
p1523
sg5
g6
sg7
(lp1524
g1516
asg9
S'./sarahs_inbox/parsed/msnbc/txt/1009.txt'
p1525
sg10
g30
sg12
g31
sg32
g1289
sba(i__main__
inode
p1526
(dp1527
g3
S"Fagerstrom, Erika (GOV) [erika.fagerstrom@alaska.gov] -- Final RSVP List- Spouses' Luncheon 1200-130pm."
p1528
sg5
g6
sg7
(lp1529
g1516
asg9
S'./sarahs_inbox/parsed/msnbc/txt/1010.txt'
p1530
sg10
g30
sg12
g31
sg32
g189
sba(i__main__
inode
p1531
(dp1532
g3
S'Kris Norosz [KrisN@Icic[eSeafoods.com] -- Support for the UAF "fisheries" line item'
p1533
sg5
g6
sg7
(lp1534
g1516
asg9
S'./sarahs_inbox/parsed/msnbc/txt/10166.txt'
p1535
sg10
g30
sg12
g31
sg32
g913
sbasg32
S'Topic: 22'
p1536
sba(i__main__
inode
p1537
(dp1538
g3
S'state, alaska, cost, bill, governor, chamber, session, health, benefit, member'
p1539
sg5
g6
sg7
(lp1540
g14
asg9
g4
sg10
g23
sg12
(lp1541
(i__main__
inode
p1542
(dp1543
g3
S'Frye, Ivy J (DOA) [/O=SOA/OU=FIRST ADMINISTRATIVE -- Re Fwd Support PR Campaign from Trooper President'
p1544
sg5
g6
sg7
(lp1545
g1537
asg9
S'./sarahs_inbox/parsed/msnbc/txt/1011.txt'
p1546
sg10
g30
sg12
g31
sg32
g195
sba(i__main__
inode
p1547
(dp1548
g3
S'PARNELL, S (GOV sponsored) [/O=SOA/OU=FIRST ADMINISTRATIVE -- LG Office Budget'
p1549
sg5
g6
sg7
(lp1550
g1537
asg9
S'./sarahs_inbox/parsed/msnbc/txt/10116.txt'
p1551
sg10
g30
sg12
g31
sg32
g213
sba(i__main__
inode
p1552
(dp1553
g3
S'PARNELL, S (GOV sponsored ) [/O=SOA/OU=FIRST ADMINISTRATIVE -- LG Office Budget'
p1554
sg5
g6
sg7
(lp1555
g1537
asg9
S'./sarahs_inbox/parsed/msnbc/txt/10118.txt'
p1556
sg10
g30
sg12
g31
sg32
g219
sba(i__main__
inode
p1557
(dp1558
g3
S'ftb907@yahoo.com -- Re Fwd Support PR Campaign from Trooper President'
p1559
sg5
g6
sg7
(lp1560
g1537
asg9
S'./sarahs_inbox/parsed/msnbc/txt/1012.txt'
p1561
sg10
g30
sg12
g31
sg32
g225
sba(i__main__
inode
p1562
(dp1563
g3
S'Leschper, Beth (GOV) [beth.leschper@alaska.gov] -- updated talking points'
p1564
sg5
g6
sg7
(lp1565
g1537
asg9
S'./sarahs_inbox/parsed/msnbc/txt/10146.txt'
p1566
sg10
g30
sg12
g31
sg32
g777
sba(i__main__
inode
p1567
(dp1568
g3
S'Governor Sarah Palin (GOV sponsored) [govemor@alaska.gov] -- RE Health-Care'
p1569
sg5
g6
sg7
(lp1570
g1537
asg9
S'./sarahs_inbox/parsed/msnbc/txt/10149.txt'
p1571
sg10
g30
sg12
g31
sg32
g306
sba(i__main__
inode
p1572
(dp1573
g3
S'Frye, Ivy J (DOA) [/O=SOA/OU=FIRST ADMINISTRATIVE GROUP/CN=RECIPIENTS/CN=IJFRYE] -- great letter to the editor from Phil Schneider'
p1574
sg5
g6
sg7
(lp1575
g1537
asg9
S'./sarahs_inbox/parsed/msnbc/txt/10156.txt'
p1576
sg10
g30
sg12
g31
sg32
g789
sba(i__main__
inode
p1577
(dp1578
g3
S'Leschper, Beth (GOV) [beth.Ieschper@alaska.gov] -- Remarks for AEA Railbelt Conf'
p1579
sg5
g6
sg7
(lp1580
g1537
asg9
S'./sarahs_inbox/parsed/msnbc/txt/10157.txt'
p1581
sg10
g30
sg12
g31
sg32
g1382
sba(i__main__
inode
p1582
(dp1583
g3
S'Rehfeld, Karen J (GOV) [/O=SOA/OU=FIRST ADMINISTRATIVE -- RE Support for the UAF "fisheries" line item'
p1584
sg5
g6
sg7
(lp1585
g1537
asg9
S'./sarahs_inbox/parsed/msnbc/txt/10188.txt'
p1586
sg10
g30
sg12
g31
sg32
g919
sba(i__main__
inode
p1587
(dp1588
g3
S'Rehfeld, Karen J (GOV) [/O=SOA/OU=FIRST ADMINISTRATIVE -- RE Univ. of Alaska Funding - Fisheries'
p1589
sg5
g6
sg7
(lp1590
g1537
asg9
S'./sarahs_inbox/parsed/msnbc/txt/10189.txt'
p1591
sg10
g30
sg12
g31
sg32
g925
sbasg32
S'Topic: 23'
p1592
sba(i__main__
inode
p1593
(dp1594
g3
S'board, governor, member, page, alaska, director, council, seat, commission, meeting'
p1595
sg5
g6
sg7
(lp1596
g14
asg9
g4
sg10
g23
sg12
(lp1597
(i__main__
inode
p1598
(dp1599
g3
S'Bailey, Frank T (GOV) [/O=SOA/OU=FIRST ADMINISTRATIVE -- FW Correction PR 08-044a Governor Palin Appoints to Suicide Prevention Council 032708'
p1600
sg5
g6
sg7
(lp1601
g1593
asg9
S'./sarahs_inbox/parsed/msnbc/txt/1009.txt'
p1602
sg10
g30
sg12
g31
sg32
g1289
sba(i__main__
inode
p1603
(dp1604
g3
S'Palin, Sarah (GOV sponsored) [govpalinalaska.gov] -- Re FYI'
p1605
sg5
g6
sg7
(lp1606
g1593
asg9
S'./sarahs_inbox/parsed/msnbc/txt/10111.txt'
p1607
sg10
g30
sg12
g31
sg32
g892
sba(i__main__
inode
p1608
(dp1609
g3
S'PARNELL, S (GOV sponsored) [/O=SOA/OU=FIRST ADMINISTRATIVE -- LG Office Budget'
p1610
sg5
g6
sg7
(lp1611
g1593
asg9
S'./sarahs_inbox/parsed/msnbc/txt/10116.txt'
p1612
sg10
g30
sg12
g31
sg32
g213
sba(i__main__
inode
p1613
(dp1614
g3
S'PARNELL, S (GOV sponsored ) [/O=SOA/OU=FIRST ADMINISTRATIVE -- LG Office Budget'
p1615
sg5
g6
sg7
(lp1616
g1593
asg9
S'./sarahs_inbox/parsed/msnbc/txt/10118.txt'
p1617
sg10
g30
sg12
g31
sg32
g219
sba(i__main__
inode
p1618
(dp1619
g3
S'Mason , Janice L (GOV) [/O=SOA/OU=FIRST ADMINISTRATIVE -- Luggage'
p1620
sg5
g6
sg7
(lp1621
g1593
asg9
S'./sarahs_inbox/parsed/msnbc/txt/10119.txt'
p1622
sg10
g30
sg12
g31
sg32
g177
sba(i__main__
inode
p1623
(dp1624
g3
S'Linda Kovac [Ikovac@chugiakcouncil.org] -- Chugiak Community Council Request re Old Glenn Highway Project'
p1625
sg5
g6
sg7
(lp1626
g1593
asg9
S'./sarahs_inbox/parsed/msnbc/txt/10160.txt'
p1627
sg10
g30
sg12
g31
sg32
g948
sba(i__main__
inode
p1628
(dp1629
g3
S'Perry, Kristina Y (GOV) [kris.perry@alaska.gov] -- Re Philadelphia'
p1630
sg5
g6
sg7
(lp1631
g1593
asg9
S'./sarahs_inbox/parsed/msnbc/txt/1018.txt'
p1632
sg10
g30
sg12
g31
sg32
g710
sbasg32
S'Topic: 24'
p1633
sba(i__main__
inode
p1634
(dp1635
g3
S'gov, dnr, marty, rutherford, tom, balash, state, irwin, alaska, galvin'
p1636
sg5
g6
sg7
(lp1637
g14
asg9
g4
sg10
g23
sg12
(lp1638
(i__main__
inode
p1639
(dp1640
g3
S'Rutherford, Marty K (DNR) [/O=SOA/OU=FIRST ADMINISTRATIVE -- FW Confirmation of the Novemberl 5th discussion'
p1641
sg5
g6
sg7
(lp1642
g1634
asg9
S'./sarahs_inbox/parsed/msnbc/txt/10152.txt'
p1643
sg10
g30
sg12
g31
sg32
g312
sba(i__main__
inode
p1644
(dp1645
g3
S"Lloyd, Denby S (DFG) [/O=SOA/OU=FIRST ADMINISTRATIVE -- RE Governor's Budget Priorities Web Survey"
p1646
sg5
g6
sg7
(lp1647
g1634
asg9
S'./sarahs_inbox/parsed/msnbc/txt/10153.txt'
p1648
sg10
g30
sg12
g31
sg32
g1272
sba(i__main__
inode
p1649
(dp1650
g3
S'gov.sarah@yahoo.com -- Ktuu'
p1651
sg5
g6
sg7
(lp1652
g1634
asg9
S'./sarahs_inbox/parsed/msnbc/txt/10167.txt'
p1653
sg10
g30
sg12
g31
sg32
g647
sba(i__main__
inode
p1654
(dp1655
g3
S'Balash, Joseph R (GOV) [/O=SOA/OU=FIRST ADMINISTRATIVE -- Re Energy pts'
p1656
sg5
g6
sg7
(lp1657
g1634
asg9
S'./sarahs_inbox/parsed/msnbc/txt/10178.txt'
p1658
sg10
g30
sg12
g31
sg32
g159
sba(i__main__
inode
p1659
(dp1660
g3
S'gov.sarah @yahoo.com -- Energy pts'
p1661
sg5
g6
sg7
(lp1662
g1634
asg9
S'./sarahs_inbox/parsed/msnbc/txt/10179.txt'
p1663
sg10
g30
sg12
g31
sg32
g704
sba(i__main__
inode
p1664
(dp1665
g3
S'gov.sarah@yahoo.com -- Re AEA Director'
p1666
sg5
g6
sg7
(lp1667
g1634
asg9
S'./sarahs_inbox/parsed/msnbc/txt/10181.txt'
p1668
sg10
g30
sg12
g31
sg32
g370
sba(i__main__
inode
p1669
(dp1670
g3
S'gov.sarah@yahoo.com -- AEA Director'
p1671
sg5
g6
sg7
(lp1672
g1634
asg9
S'./sarahs_inbox/parsed/msnbc/txt/10185.txt'
p1673
sg10
g30
sg12
g31
sg32
g388
sbasg32
S'Topic: 25'
p1674
sba(i__main__
inode
p1675
(dp1676
g3
S'letter, airport, dot, meeting, page, use, goode, would, willow, please'
p1677
sg5
g6
sg7
(lp1678
g14
asg9
g4
sg10
g23
sg12
(lp1679
(i__main__
inode
p1680
(dp1681
g3
S'Fagerstrom, Erika (GOV) [/O=SOA/OU=FIRST ADMINISTRATIVE -- Water Pipe Replacement Cost'
p1682
sg5
g6
sg7
(lp1683
g1675
asg9
S'./sarahs_inbox/parsed/msnbc/txt/1000.txt'
p1684
sg10
g30
sg12
g31
sg32
g749
sba(i__main__
inode
p1685
(dp1686
g3
S'Fagerstrom, Erika (GOV) VO=SOA/OU=FIRST ADMINISTRATIVE -- Educ.Comm. Thompson- Request to attend Anchorage Mtg.on "Drop out issue" Fri. 4/18 (10-2pm.)'
p1687
sg5
g6
sg7
(lp1688
g1675
asg9
S'./sarahs_inbox/parsed/msnbc/txt/1005.txt'
p1689
sg10
g30
sg12
g31
sg32
g436
sba(i__main__
inode
p1690
(dp1691
g3
S'PARNELL, S (GOV sponsored) [/O=SOA/OU=FIRST ADMINISTRATIVE -- Kenai River Regs'
p1692
sg5
g6
sg7
(lp1693
g1675
asg9
S'./sarahs_inbox/parsed/msnbc/txt/10141.txt'
p1694
sg10
g30
sg12
g31
sg32
g1161
sba(i__main__
inode
p1695
(dp1696
g3
S'Von Scheben, Leo (DOT) [/O=SOA/OU=FIRST ADMINISTRATIVE -- FW Aleknagik'
p1697
sg5
g6
sg7
(lp1698
g1675
asg9
S'./sarahs_inbox/parsed/msnbc/txt/10150.txt'
p1699
sg10
g30
sg12
g31
sg32
g1240
sba(i__main__
inode
p1700
(dp1701
g3
S'Linda Kovac [Ikovac@chugiakcouncil.org] -- Chugiak Community Council Request re Old Glenn Highway Project'
p1702
sg5
g6
sg7
(lp1703
g1675
asg9
S'./sarahs_inbox/parsed/msnbc/txt/10160.txt'
p1704
sg10
g30
sg12
g31
sg32
g948
sba(i__main__
inode
p1705
(dp1706
g3
S"Palin, Sarah (GOV sponsored ) [govpalin@alaska.gov] -- Re Murph O'brien"
p1707
sg5
g6
sg7
(lp1708
g1675
asg9
S'./sarahs_inbox/parsed/msnbc/txt/10170.txt'
p1709
sg10
g30
sg12
g31
sg32
g880
sbasg32
S'Topic: 26'
p1710
sba(i__main__
inode
p1711
(dp1712
g3
S'state, mat, maid, dairy, energy, farmer, milk, plan, need, governor'
p1713
sg5
g6
sg7
(lp1714
g14
asg9
g4
sg10
g23
sg12
(lp1715
(i__main__
inode
p1716
(dp1717
g3
S'fek9wnr@yahoo.com -- Re Call'
p1718
sg5
g6
sg7
(lp1719
g1711
asg9
S'./sarahs_inbox/parsed/msnbc/txt/1007.txt'
p1720
sg10
g30
sg12
g31
sg32
g991
sba(i__main__
inode
p1721
(dp1722
g3
S'Frye, Ivy J (DOA) [/O=SOA/OU=FIRST ADMINISTRATIVE GROUP/CN=RECIPIENTS/CN=IJFRYE] -- great letter to the editor from Phil Schneider'
p1723
sg5
g6
sg7
(lp1724
g1711
asg9
S'./sarahs_inbox/parsed/msnbc/txt/10156.txt'
p1725
sg10
g30
sg12
g31
sg32
g789
sba(i__main__
inode
p1726
(dp1727
g3
S'Leschper, Beth (GOV) [beth.Ieschper@alaska.gov] -- Remarks for AEA Railbelt Conf'
p1728
sg5
g6
sg7
(lp1729
g1711
asg9
S'./sarahs_inbox/parsed/msnbc/txt/10157.txt'
p1730
sg10
g30
sg12
g31
sg32
g1382
sba(i__main__
inode
p1731
(dp1732
g3
S'gov.sarah @yahoo.com -- Energy pts'
p1733
sg5
g6
sg7
(lp1734
g1711
asg9
S'./sarahs_inbox/parsed/msnbc/txt/10179.txt'
p1735
sg10
g30
sg12
g31
sg32
g704
sba(i__main__
inode
p1736
(dp1737
g3
S'Governor Sarah Palin (GOV sponsored) [governor@alaska.gov] -- RE Health-Care'
p1738
sg5
g6
sg7
(lp1739
g1711
asg9
S'./sarahs_inbox/parsed/msnbc/txt/10184.txt'
p1740
sg10
g30
sg12
g31
sg32
g382
sbasg32
S'Topic: 27'
p1741
sba(i__main__
inode
p1742
(dp1743
g3
S'meghan, stapleton, kari, spencer, state, com, palin, gov, communication, page'
p1744
sg5
g6
sg7
(lp1745
g14
asg9
g4
sg10
g23
sg12
(lp1746
(i__main__
inode
p1747
(dp1748
g3
S'Fagerstrom, Erika (GOV) [/O=SOA/OU=FIRST ADMINISTRATIVE -- Travel Fri. 3/28'
p1749
sg5
g6
sg7
(lp1750
g1742
asg9
S'./sarahs_inbox/parsed/msnbc/txt/1002.txt'
p1751
sg10
g30
sg12
g31
sg32
g965
sba(i__main__
inode
p1752
(dp1753
g3
S'Fagerstrom, Erika (GOV) [/O=SOA/OU=FIRST ADMINISTRATIVE -- RE Romer'
p1754
sg5
g6
sg7
(lp1755
g1742
asg9
S'./sarahs_inbox/parsed/msnbc/txt/1003.txt'
p1756
sg10
g30
sg12
g31
sg32
g39
sba(i__main__
inode
p1757
(dp1758
g3
S'frank bailey [ftb907@yahoo.com] -- Le Ear'
p1759
sg5
g6
sg7
(lp1760
g1742
asg9
S'./sarahs_inbox/parsed/msnbc/txt/;1013.txt'
p1761
sg10
g30
sg12
g31
sg32
g1053
sba(i__main__
inode
p1762
(dp1763
g3
S'Mason , Janice L (GOV) [/O=SOA/OU=FIRST ADMINISTRATIVE -- Re Scheduling'
p1764
sg5
g6
sg7
(lp1765
g1742
asg9
S'./sarahs_inbox/parsed/msnbc/txt/10139.txt'
p1766
sg10
g30
sg12
g31
sg32
g87
sbasg32
S'Topic: 28'
p1767
sba(i__main__
inode
p1768
(dp1769
g3
S'name, great, team, chuck, apoc, crew, think, together, thank, redact'
p1770
sg5
g6
sg7
(lp1771
g14
asg9
g4
sg10
g23
sg12
(lp1772
(i__main__
inode
p1773
(dp1774
g3
S'Fagerstrom, Erika (GOV) [erika.fagerstrom@alaska.gov] -- Flight Information Friday, March 28th Travel Jnu-Anc. Fit. 67'
p1775
sg5
g6
sg7
(lp1776
g1768
asg9
S'./sarahs_inbox/parsed/msnbc/txt/1004.txt'
p1777
sg10
g30
sg12
g31
sg32
g755
sba(i__main__
inode
p1778
(dp1779
g3
S'gov.sarah@yahoo.com -- Re Welcome to WOW! - News'
p1780
sg5
g6
sg7
(lp1781
g1768
asg9
S'./sarahs_inbox/parsed/msnbc/txt/10122.txt'
p1782
sg10
g30
sg12
g31
sg32
g831
sba(i__main__
inode
p1783
(dp1784
g3
S'Colberg, Talis J (LAW) [/O=SOA/OU=FIRST ADMINISTRATIVE -- Re Welcome to WOW! - News'
p1785
sg5
g6
sg7
(lp1786
g1768
asg9
S'./sarahs_inbox/parsed/msnbc/txt/10123.txt'
p1787
sg10
g30
sg12
g31
sg32
g837
sba(i__main__
inode
p1788
(dp1789
g3
S'gov.sarah @yahoo.com -- Fw Welcome to WOW! - News'
p1790
sg5
g6
sg7
(lp1791
g1768
asg9
S'./sarahs_inbox/parsed/msnbc/txt/10124.txt'
p1792
sg10
g30
sg12
g31
sg32
g843
sba(i__main__
inode
p1793
(dp1794
g3
S'frank bailey [ftb907@yahoo.com] -- Le Ear'
p1795
sg5
g6
sg7
(lp1796
g1768
asg9
S'./sarahs_inbox/parsed/msnbc/txt/;1013.txt'
p1797
sg10
g30
sg12
g31
sg32
g1053
sba(i__main__
inode
p1798
(dp1799
g3
S'gov.sarah@yahoo.com -- Fagan'
p1800
sg5
g6
sg7
(lp1801
g1768
asg9
S'./sarahs_inbox/parsed/msnbc/txt/10177.txt'
p1802
sg10
g30
sg12
g31
sg32
g693
sbasg32
S'Topic: 29'
p1803
sbasg32
S'Topic Folder'
p1804
sba(i__main__
inode
p1805
(dp1806
g3
g4
sg5
g6
sg7
(lp1807
g1
asg9
g4
sg10
g17
sg12
g31
sg32
S'Social Folder'
p1808
sba(i__main__
inode
p1809
(dp1810
g3
g4
sg5
g6
sg7
(lp1811
g1
asg9
g4
sg10
g17
sg12
(lp1812
sg32
S'Unsorted Folder'
p1813
sbasg32
S'ROOT'
p1814
sbag14
ag1805
ag1809
ag19
ag161
ag179
ag396
ag408
ag426
ag480
ag739
ag762
ag811
ag882
ag927
ag950
ag1023
ag1100
ag1195
ag1247
ag1279
ag1351
ag1367
ag1384
ag1460
ag1516
ag1537
ag1593
ag1634
ag1675
ag1711
ag1742
ag1768
ag25
ag34
ag40
ag46
ag52
ag58
ag64
ag70
ag76
ag82
ag88
ag94
ag100
ag106
ag112
ag118
ag124
ag130
ag136
ag142
ag148
ag154
ag166
ag172
ag184
ag190
ag196
ag202
ag208
ag214
ag220
ag226
ag232
ag238
ag243
ag249
ag255
ag261
ag267
ag273
ag278
ag283
ag289
ag295
ag301
ag307
ag313
ag319
ag324
ag329
ag335
ag341
ag347
ag353
ag359
ag365
ag371
ag377
ag383
ag389
ag401
ag413
ag419
ag431
ag437
ag442
ag447
ag452
ag457
ag462
ag467
ag473
ag485
ag490
ag495
ag500
ag505
ag510
ag515
ag520
ag526
ag532
ag537
ag542
ag547
ag552
ag557
ag563
ag569
ag575
ag580
ag585
ag590
ag595
ag600
ag605
ag610
ag615
ag620
ag626
ag631
ag636
ag642
ag648
ag653
ag658
ag663
ag668
ag673
ag678
ag683
ag688
ag694
ag699
ag705
ag711
ag716
ag721
ag727
ag732
ag744
ag750
ag756
ag767
ag772
ag778
ag784
ag790
ag795
ag800
ag805
ag816
ag821
ag826
ag832
ag838
ag844
ag849
ag854
ag859
ag864
ag869
ag875
ag887
ag893
ag898
ag903
ag908
ag914
ag920
ag932
ag937
ag943
ag955
ag960
ag966
ag971
ag976
ag981
ag986
ag992
ag997
ag1002
ag1007
ag1012
ag1017
ag1028
ag1033
ag1038
ag1043
ag1048
ag1054
ag1059
ag1064
ag1069
ag1074
ag1079
ag1084
ag1089
ag1094
ag1105
ag1110
ag1115
ag1120
ag1126
ag1131
ag1136
ag1141
ag1146
ag1151
ag1156
ag1162
ag1167
ag1172
ag1177
ag1183
ag1189
ag1200
ag1205
ag1210
ag1215
ag1220
ag1225
ag1230
ag1235
ag1241
ag1252
ag1257
ag1262
ag1267
ag1273
ag1284
ag1290
ag1295
ag1300
ag1305
ag1310
ag1315
ag1320
ag1325
ag1330
ag1335
ag1340
ag1345
ag1356
ag1361
ag1372
ag1377
ag1389
ag1394
ag1399
ag1404
ag1409
ag1414
ag1419
ag1424
ag1429
ag1434
ag1439
ag1444
ag1449
ag1454
ag1465
ag1470
ag1475
ag1480
ag1485
ag1490
ag1495
ag1500
ag1505
ag1510
ag1521
ag1526
ag1531
ag1542
ag1547
ag1552
ag1557
ag1562
ag1567
ag1572
ag1577
ag1582
ag1587
ag1598
ag1603
ag1608
ag1613
ag1618
ag1623
ag1628
ag1639
ag1644
ag1649
ag1654
ag1659
ag1664
ag1669
ag1680
ag1685
ag1690
ag1695
ag1700
ag1705
ag1716
ag1721
ag1726
ag1731
ag1736
ag1747
ag1752
ag1757
ag1762
ag1773
ag1778
ag1783
ag1788
ag1793
ag1798
a.