(lp0
(i__main__
inode
p1
(dp2
S'description'
p3
S''
p4
sS'email'
p5
(lp6
sS'parents'
p7
(lp8
sS'email_directory'
p9
g4
sS'type'
p10
S'root'
p11
sS'children'
p12
(lp13
(i__main__
inode
p14
(dp15
g3
g4
sg5
g6
sg7
(lp16
g1
asg9
g4
sg10
S'sub_root'
p17
sg12
(lp18
(i__main__
inode
p19
(dp20
g3
S'group, recipient, roston, first, administrative, soa, janice, unknown, mason, subject'
p21
sg5
g6
sg7
(lp22
g14
asg9
g4
sg10
S'directory'
p23
sg12
(lp24
(i__main__
inode
p25
(dp26
g3
S'Fagerstrom, Erika (GOV) [/O=SOA/OU=FIRST ADMINISTRATIVE -- Travel Fri. 3/28'
p27
sg5
g6
sg7
(lp28
g19
asg9
S'./sarahs_inbox/parsed/msnbc/txt/1002.txt'
p29
sg10
g5
sg12
(lp30
sS'name'
p31
S'1002.txt'
p32
sba(i__main__
inode
p33
(dp34
g3
S'Fagerstrom, Erika (GOV) [/O=SOA/OU=FIRST ADMINISTRATIVE -- RE Romer'
p35
sg5
g6
sg7
(lp36
g19
asg9
S'./sarahs_inbox/parsed/msnbc/txt/1003.txt'
p37
sg10
g5
sg12
g30
sg31
S'1003.txt'
p38
sba(i__main__
inode
p39
(dp40
g3
S"Fagerstrom, Erika (GOV) [erika.fagerstrom@alaska.gov] -- RE FYI- RSVP Spouses' Luncheon Friday, March 28, 2008 1200 to 130pm."
p41
sg5
g6
sg7
(lp42
g19
asg9
S'./sarahs_inbox/parsed/msnbc/txt/;1006.txt'
p43
sg10
g5
sg12
g30
sg31
S';1006.txt'
p44
sba(i__main__
inode
p45
(dp46
g3
S'gov.sarah@yahoo.com -- Re PSA with Todd'
p47
sg5
g6
sg7
(lp48
g19
asg9
S'./sarahs_inbox/parsed/msnbc/txt/10109.txt'
p49
sg10
g5
sg12
g30
sg31
S'10109.txt'
p50
sba(i__main__
inode
p51
(dp52
g3
S'Mason , Janice L (GOV) I/O=SOA/OU=FIRST ADMINISTRATIVE -- RE Military_and Veterans_Affairs'
p53
sg5
g6
sg7
(lp54
g19
asg9
S'./sarahs_inbox/parsed/msnbc/txt/10113.txt'
p55
sg10
g5
sg12
g30
sg31
S'10113.txt'
p56
sba(i__main__
inode
p57
(dp58
g3
S'Mason , Janice L (GOV) [/O=SOA/OU=FIRST ADMINISTRATIVE -- Luggage'
p59
sg5
g6
sg7
(lp60
g19
asg9
S'./sarahs_inbox/parsed/msnbc/txt/10115.txt'
p61
sg10
g5
sg12
g30
sg31
S'10115.txt'
p62
sba(i__main__
inode
p63
(dp64
g3
S'Mason , Janice L (GOV) [/O=SOA/OU=FIRST ADMINISTRATIVE -- Troops Returning'
p65
sg5
g6
sg7
(lp66
g19
asg9
S'./sarahs_inbox/parsed/msnbc/txt/10117.txt'
p67
sg10
g5
sg12
g30
sg31
S'10117.txt'
p68
sba(i__main__
inode
p69
(dp70
g3
S'PARNELL, S (GOV sponsored) [/O=SOA/OU=FIRST ADMINISTRATIVE -- Thinking out loud'
p71
sg5
g6
sg7
(lp72
g19
asg9
S'./sarahs_inbox/parsed/msnbc/txt/10129.txt'
p73
sg10
g5
sg12
g30
sg31
S'10129.txt'
p74
sba(i__main__
inode
p75
(dp76
g3
S'Frye, Ivy J (DOA) [/O=SOA/OU=FIRST ADMINISTRATIVE -- Present from paulette'
p77
sg5
g6
sg7
(lp78
g19
asg9
S'./sarahs_inbox/parsed/msnbc/txt/10138.txt'
p79
sg10
g5
sg12
g30
sg31
S'10138.txt'
p80
sba(i__main__
inode
p81
(dp82
g3
S'Mason , Janice L (GOV) [/O=SOA/OU=FIRST ADMINISTRATIVE -- Re Scheduling'
p83
sg5
g6
sg7
(lp84
g19
asg9
S'./sarahs_inbox/parsed/msnbc/txt/10139.txt'
p85
sg10
g5
sg12
g30
sg31
S'10139.txt'
p86
sba(i__main__
inode
p87
(dp88
g3
S'Frye, Ivy J (DOA) [/O=SOA/OU=FIRST ADMINISTRATIVE -- Fw Psea ads'
p89
sg5
g6
sg7
(lp90
g19
asg9
S'./sarahs_inbox/parsed/msnbc/txt/1014.txt'
p91
sg10
g5
sg12
g30
sg31
S'1014.txt'
p92
sba(i__main__
inode
p93
(dp94
g3
S'Mason, Janice L (GOV) [/O=SOA/OU=FIRST ADMINISTRATIVE -- Re Scheduling'
p95
sg5
g6
sg7
(lp96
g19
asg9
S'./sarahs_inbox/parsed/msnbc/txt/10140.txt'
p97
sg10
g5
sg12
g30
sg31
S'10140.txt'
p98
sba(i__main__
inode
p99
(dp100
g3
S'Mason, Janice L (GOV) [/O=SOA/OU=FIRST ADMINISTRATIVE -- Telephone Calls - Drop Out Students'
p101
sg5
g6
sg7
(lp102
g19
asg9
S'./sarahs_inbox/parsed/msnbc/txt/10142.txt'
p103
sg10
g5
sg12
g30
sg31
S'10142.txt'
p104
sba(i__main__
inode
p105
(dp106
g3
S'Frye, Ivy J (DOA) [/O=SOA/OU=FIRST ADMINISTRATIVE GROUP/CN=RECIPIENTS/CN=IJFRYEI -- FW empire'
p107
sg5
g6
sg7
(lp108
g19
asg9
S'./sarahs_inbox/parsed/msnbc/txt/1015.txt'
p109
sg10
g5
sg12
g30
sg31
S'1015.txt'
p110
sba(i__main__
inode
p111
(dp112
g3
S'Morgan, Katryn L (GOV) [/O=SOA/OU=FIRST ADMINISTRATIVE -- AK Right to Life Remarks'
p113
sg5
g6
sg7
(lp114
g19
asg9
S'./sarahs_inbox/parsed/msnbc/txt/10151.txt'
p115
sg10
g5
sg12
g30
sg31
S'10151.txt'
p116
sba(i__main__
inode
p117
(dp118
g3
S'Colberg, Tails J (LAW) [/O=SOA/OU=FIRST ADMINISTRATIVE -- Today.'
p119
sg5
g6
sg7
(lp120
g19
asg9
S'./sarahs_inbox/parsed/msnbc/txt/10155.txt'
p121
sg10
g5
sg12
g30
sg31
S'10155.txt'
p122
sba(i__main__
inode
p123
(dp124
g3
S'Fagerstrom, Erika (GOV) [/O=SOA/OU=FIRST ADMINISTRATIVE -- Flights'
p125
sg5
g6
sg7
(lp126
g19
asg9
S'./sarahs_inbox/parsed/msnbc/txt/1016.txt'
p127
sg10
g5
sg12
g30
sg31
S'1016.txt'
p128
sba(i__main__
inode
p129
(dp130
g3
S'Frye, Ivy J (DOA) [/O=SOA/OU=FIRST ADMINISTRATIVE -- Car trouble'
p131
sg5
g6
sg7
(lp132
g19
asg9
S'./sarahs_inbox/parsed/msnbc/txt/10162.txt'
p133
sg10
g5
sg12
g30
sg31
S'10162.txt'
p134
sba(i__main__
inode
p135
(dp136
g3
S'Frye, Ivy J (DOA) [/O=SOA/OU=FIRST ADMINISTRATIVE -- Re Happy Thanksgiving!'
p137
sg5
g6
sg7
(lp138
g19
asg9
S'./sarahs_inbox/parsed/msnbc/txt/10164.txt'
p139
sg10
g5
sg12
g30
sg31
S'10164.txt'
p140
sba(i__main__
inode
p141
(dp142
g3
S'Fagerstrom, Erika (GOV) [/O=SOA/OU=FIRST ADMINISTRATIVE -- Dates are TH 3/3 and F 3/4'
p143
sg5
g6
sg7
(lp144
g19
asg9
S'./sarahs_inbox/parsed/msnbc/txt/1017.txt'
p145
sg10
g5
sg12
g30
sg31
S'1017.txt'
p146
sba(i__main__
inode
p147
(dp148
g3
S'PARNELL, S (GOV sponsored) [/O=SOA/OU=FIRST ADMINISTRATIVE -- Re Fagan'
p149
sg5
g6
sg7
(lp150
g19
asg9
S'./sarahs_inbox/parsed/msnbc/txt/10176.txt'
p151
sg10
g5
sg12
g30
sg31
S'10176.txt'
p152
sba(i__main__
inode
p153
(dp154
g3
S'Balash, Joseph R (GOV) [/O=SOA/OU=FIRST ADMINISTRATIVE -- Re Energy pts'
p155
sg5
g6
sg7
(lp156
g19
asg9
S'./sarahs_inbox/parsed/msnbc/txt/10178.txt'
p157
sg10
g5
sg12
g30
sg31
S'10178.txt'
p158
sbasg31
S'abc'
p159
sba(i__main__
inode
p160
(dp161
g3
S'process, executive, state, constitution, attorney, client, sec, art, mail, communication'
p162
sg5
g6
sg7
(lp163
g14
asg9
g4
sg10
g23
sg12
(lp164
(i__main__
inode
p165
(dp166
g3
S'Frye, Ivy J (DOA) [/O=SOA/OU=FIRST ADMINISTRATIVE -- Fw Cell phone reimbursement'
p167
sg5
g6
sg7
(lp168
g160
asg9
S'./sarahs_inbox/parsed/msnbc/txt/1001.txt'
p169
sg10
g5
sg12
g30
sg31
S'1001.txt'
p170
sba(i__main__
inode
p171
(dp172
g3
S'Mason , Janice L (GOV) [/O=SOA/OU=FIRST ADMINISTRATIVE -- Luggage'
p173
sg5
g6
sg7
(lp174
g160
asg9
S'./sarahs_inbox/parsed/msnbc/txt/10119.txt'
p175
sg10
g5
sg12
g30
sg31
S'10119.txt'
p176
sbasg31
S'def'
p177
sba(i__main__
inode
p178
(dp179
g3
S'know, get, would, time, want, like, good, work, people, think'
p180
sg5
g6
sg7
(lp181
g14
asg9
g4
sg10
g23
sg12
(lp182
(i__main__
inode
p183
(dp184
g3
S"Fagerstrom, Erika (GOV) [erika.fagerstrom@alaska.gov] -- Final RSVP List- Spouses' Luncheon 1200-130pm."
p185
sg5
g6
sg7
(lp186
g178
asg9
S'./sarahs_inbox/parsed/msnbc/txt/1010.txt'
p187
sg10
g5
sg12
g30
sg31
S'1010.txt'
p188
sba(i__main__
inode
p189
(dp190
g3
S'Frye, Ivy J (DOA) [/O=SOA/OU=FIRST ADMINISTRATIVE -- Re Fwd Support PR Campaign from Trooper President'
p191
sg5
g6
sg7
(lp192
g178
asg9
S'./sarahs_inbox/parsed/msnbc/txt/1011.txt'
p193
sg10
g5
sg12
g30
sg31
S'1011.txt'
p194
sba(i__main__
inode
p195
(dp196
g3
S"Governor Sarah Palin (GOV sponsored) [governor@alaska.govj -- FW George Brown's granddaughter"
p197
sg5
g6
sg7
(lp198
g178
asg9
S'./sarahs_inbox/parsed/msnbc/txt/10110.txt'
p199
sg10
g5
sg12
g30
sg31
S'10110.txt'
p200
sba(i__main__
inode
p201
(dp202
g3
S'Mason , Janice L (GOV) [/O=SOA/OU=FIRST ADMINISTRATIVE -- RE Military_and_VeteransAffairs'
p203
sg5
g6
sg7
(lp204
g178
asg9
S'./sarahs_inbox/parsed/msnbc/txt/10114.txt'
p205
sg10
g5
sg12
g30
sg31
S'10114.txt'
p206
sba(i__main__
inode
p207
(dp208
g3
S'PARNELL, S (GOV sponsored) [/O=SOA/OU=FIRST ADMINISTRATIVE -- LG Office Budget'
p209
sg5
g6
sg7
(lp210
g178
asg9
S'./sarahs_inbox/parsed/msnbc/txt/10116.txt'
p211
sg10
g5
sg12
g30
sg31
S'10116.txt'
p212
sba(i__main__
inode
p213
(dp214
g3
S'PARNELL, S (GOV sponsored ) [/O=SOA/OU=FIRST ADMINISTRATIVE -- LG Office Budget'
p215
sg5
g6
sg7
(lp216
g178
asg9
S'./sarahs_inbox/parsed/msnbc/txt/10118.txt'
p217
sg10
g5
sg12
g30
sg31
S'10118.txt'
p218
sba(i__main__
inode
p219
(dp220
g3
S'ftb907@yahoo.com -- Re Fwd Support PR Campaign from Trooper President'
p221
sg5
g6
sg7
(lp222
g178
asg9
S'./sarahs_inbox/parsed/msnbc/txt/1012.txt'
p223
sg10
g5
sg12
g30
sg31
S'1012.txt'
p224
sba(i__main__
inode
p225
(dp226
g3
S'PARNELL, S (GOV sponsored) [/O=SOA/OU=FIRST ADMINISTRATIVE -- Re Thinking out loud'
p227
sg5
g6
sg7
(lp228
g178
asg9
S'./sarahs_inbox/parsed/msnbc/txt/10127.txt'
p229
sg10
g5
sg12
g30
sg31
S'10127.txt'
p230
sba(i__main__
inode
p231
(dp232
g3
S'gov.sarah@yahoo.com -- Re Thinking out loud'
p233
sg5
g6
sg7
(lp234
g178
asg9
S'./sarahs_inbox/parsed/msnbc/txt/10128.txt'
p235
sg10
g5
sg12
g30
sg31
S'10128.txt'
p236
sba(i__main__
inode
p237
(dp238
g3
S'PARNELL, S (GOV sponsored) [/O=SOA/OU=FIRST ADMINISTRATIVE -- Thinking out loud'
p239
sg5
g6
sg7
(lp240
g178
asg9
S'./sarahs_inbox/parsed/msnbc/txt/10129.txt'
p241
sg10
g5
sg12
g30
sg31
g74
sba(i__main__
inode
p242
(dp243
g3
S'gov.sarah@yahoo.com -- Re Scheduling'
p244
sg5
g6
sg7
(lp245
g178
asg9
S'./sarahs_inbox/parsed/msnbc/txt/10130.txt'
p246
sg10
g5
sg12
g30
sg31
S'10130.txt'
p247
sba(i__main__
inode
p248
(dp249
g3
S'gov.sarah@yahoo.com -- Re Scheduling'
p250
sg5
g6
sg7
(lp251
g178
asg9
S'./sarahs_inbox/parsed/msnbc/txt/10131.txt'
p252
sg10
g5
sg12
g30
sg31
S'10131.txt'
p253
sba(i__main__
inode
p254
(dp255
g3
S'gov. sarah@yahoo.com -- Re Telephone Calls - Drop Out Students'
p256
sg5
g6
sg7
(lp257
g178
asg9
S'./sarahs_inbox/parsed/msnbc/txt/10132.txt'
p258
sg10
g5
sg12
g30
sg31
S'10132.txt'
p259
sba(i__main__
inode
p260
(dp261
g3
S'gov.sarah@yahoo.com -- Re Present from paulette'
p262
sg5
g6
sg7
(lp263
g178
asg9
S'./sarahs_inbox/parsed/msnbc/txt/10136.txt'
p264
sg10
g5
sg12
g30
sg31
S'10136.txt'
p265
sba(i__main__
inode
p266
(dp267
g3
S'gov.sarah@yahoo.com -- Re Scheduling'
p268
sg5
g6
sg7
(lp269
g178
asg9
S'./sarahs_inbox/parsed/msnbc/txt/10137.txt'
p270
sg10
g5
sg12
g30
sg31
S'10137.txt'
p271
sba(i__main__
inode
p272
(dp273
g3
S'Frye, Ivy J (DOA) [/O=SOA/OU=FIRST ADMINISTRATIVE -- Present from paulette'
p274
sg5
g6
sg7
(lp275
g178
asg9
S'./sarahs_inbox/parsed/msnbc/txt/10138.txt'
p276
sg10
g5
sg12
g30
sg31
g80
sba(i__main__
inode
p277
(dp278
g3
S'Mason, Janice L (GOV) [/O=SOA/OU=FIRST ADMINISTRATIVE -- Re Scheduling'
p279
sg5
g6
sg7
(lp280
g178
asg9
S'./sarahs_inbox/parsed/msnbc/txt/10140.txt'
p281
sg10
g5
sg12
g30
sg31
g98
sba(i__main__
inode
p282
(dp283
g3
S'Mason , Janice L (GOV) [/O=SOA/OU=FIRST ADMINISTRATIVE -- Scheduling'
p284
sg5
g6
sg7
(lp285
g178
asg9
S'./sarahs_inbox/parsed/msnbc/txt/10143.txt'
p286
sg10
g5
sg12
g30
sg31
S'10143.txt'
p287
sba(i__main__
inode
p288
(dp289
g3
S'John Katz jwkatz ALASKADC.org] -- Federal Funding/State Budget'
p290
sg5
g6
sg7
(lp291
g178
asg9
S'./sarahs_inbox/parsed/msnbc/txt/10144.txt'
p292
sg10
g5
sg12
g30
sg31
S'10144.txt'
p293
sba(i__main__
inode
p294
(dp295
g3
S'Morgan , Katryn L (GOV) [/O=SOA/OU=FIRST ADMINISTRATIVE -- AK Right to Life Remarks'
p296
sg5
g6
sg7
(lp297
g178
asg9
S'./sarahs_inbox/parsed/msnbc/txt/10145.txt'
p298
sg10
g5
sg12
g30
sg31
S'10145.txt'
p299
sba(i__main__
inode
p300
(dp301
g3
S'Governor Sarah Palin (GOV sponsored) [govemor@alaska.gov] -- RE Health-Care'
p302
sg5
g6
sg7
(lp303
g178
asg9
S'./sarahs_inbox/parsed/msnbc/txt/10149.txt'
p304
sg10
g5
sg12
g30
sg31
S'10149.txt'
p305
sba(i__main__
inode
p306
(dp307
g3
S'Rutherford, Marty K (DNR) [/O=SOA/OU=FIRST ADMINISTRATIVE -- FW Confirmation of the Novemberl 5th discussion'
p308
sg5
g6
sg7
(lp309
g178
asg9
S'./sarahs_inbox/parsed/msnbc/txt/10152.txt'
p310
sg10
g5
sg12
g30
sg31
S'10152.txt'
p311
sba(i__main__
inode
p312
(dp313
g3
S'Sarah Palin [ gov.sarah @yahoo.com] -- Re Happy Thanksgiving!'
p314
sg5
g6
sg7
(lp315
g178
asg9
S'./sarahs_inbox/parsed/msnbc/txt/10159.txt'
p316
sg10
g5
sg12
g30
sg31
S'10159.txt'
p317
sba(i__main__
inode
p318
(dp319
g3
S'Frye, Ivy J (DOA) [/O=SOA/OU=FIRST ADMINISTRATIVE -- Car trouble'
p320
sg5
g6
sg7
(lp321
g178
asg9
S'./sarahs_inbox/parsed/msnbc/txt/10162.txt'
p322
sg10
g5
sg12
g30
sg31
g134
sba(i__main__
inode
p323
(dp324
g3
S'Frye, Ivy J (DOA) [/O=SOA/OU=FIRST ADMINISTRATIVE -- Re Happy Thanksgiving!'
p325
sg5
g6
sg7
(lp326
g178
asg9
S'./sarahs_inbox/parsed/msnbc/txt/10164.txt'
p327
sg10
g5
sg12
g30
sg31
g140
sba(i__main__
inode
p328
(dp329
g3
S'gov.sarah@yahoo.com -- Re Conoco'
p330
sg5
g6
sg7
(lp331
g178
asg9
S'./sarahs_inbox/parsed/msnbc/txt/10168.txt'
p332
sg10
g5
sg12
g30
sg31
S'10168.txt'
p333
sba(i__main__
inode
p334
(dp335
g3
S'gov.sarah@yahoo.com -- Re Conoco'
p336
sg5
g6
sg7
(lp337
g178
asg9
S'./sarahs_inbox/parsed/msnbc/txt/10169.txt'
p338
sg10
g5
sg12
g30
sg31
S'10169.txt'
p339
sba(i__main__
inode
p340
(dp341
g3
S'PARNELL, S (GOV sponsored) [/O=SOA/OU=FIRST ADMINISTRATIVE -- Re Fagan'
p342
sg5
g6
sg7
(lp343
g178
asg9
S'./sarahs_inbox/parsed/msnbc/txt/10172.txt'
p344
sg10
g5
sg12
g30
sg31
S'10172.txt'
p345
sba(i__main__
inode
p346
(dp347
g3
S'gov.sarah @yahoo.com -- Re Fagan'
p348
sg5
g6
sg7
(lp349
g178
asg9
S'./sarahs_inbox/parsed/msnbc/txt/10173.txt'
p350
sg10
g5
sg12
g30
sg31
S'10173.txt'
p351
sba(i__main__
inode
p352
(dp353
g3
S'PARNELL, S (GOV sponsored) [/O=SOA/OU=FIRST ADMINISTRATIVE -- Re Fagan'
p354
sg5
g6
sg7
(lp355
g178
asg9
S'./sarahs_inbox/parsed/msnbc/txt/10174.txt'
p356
sg10
g5
sg12
g30
sg31
S'10174.txt'
p357
sba(i__main__
inode
p358
(dp359
g3
S'gov.sarah@yahoo.com -- Re Fagan'
p360
sg5
g6
sg7
(lp361
g178
asg9
S'./sarahs_inbox/parsed/msnbc/txt/10175.txt'
p362
sg10
g5
sg12
g30
sg31
S'10175.txt'
p363
sba(i__main__
inode
p364
(dp365
g3
S'gov.sarah@yahoo.com -- Re AEA Director'
p366
sg5
g6
sg7
(lp367
g178
asg9
S'./sarahs_inbox/parsed/msnbc/txt/10181.txt'
p368
sg10
g5
sg12
g30
sg31
S'10181.txt'
p369
sba(i__main__
inode
p370
(dp371
g3
S'gov.sarah@yahoo.com -- Re Conoco'
p372
sg5
g6
sg7
(lp373
g178
asg9
S'./sarahs_inbox/parsed/msnbc/txt/10183.txt'
p374
sg10
g5
sg12
g30
sg31
S'10183.txt'
p375
sba(i__main__
inode
p376
(dp377
g3
S'Governor Sarah Palin (GOV sponsored) [governor@alaska.gov] -- RE Health-Care'
p378
sg5
g6
sg7
(lp379
g178
asg9
S'./sarahs_inbox/parsed/msnbc/txt/10184.txt'
p380
sg10
g5
sg12
g30
sg31
S'10184.txt'
p381
sba(i__main__
inode
p382
(dp383
g3
S'gov.sarah@yahoo.com -- AEA Director'
p384
sg5
g6
sg7
(lp385
g178
asg9
S'./sarahs_inbox/parsed/msnbc/txt/10185.txt'
p386
sg10
g5
sg12
g30
sg31
S'10185.txt'
p387
sba(i__main__
inode
p388
(dp389
g3
S'Frye, Ivy J (DOA) [/O=SOA/OU=FIRST ADMINISTRATIVE -- Fw Conoco'
p390
sg5
g6
sg7
(lp391
g178
asg9
S'./sarahs_inbox/parsed/msnbc/txt/10186.txt'
p392
sg10
g5
sg12
g30
sg31
S'10186.txt'
p393
sbasg31
S'wsb'
p394
sba(i__main__
inode
p395
(dp396
g3
S'rural, native, bethel, alaska, dec, village, water, rhonda, mine, commission'
p397
sg5
g6
sg7
(lp398
g14
asg9
g4
sg10
g23
sg12
(lp399
(i__main__
inode
p400
(dp401
g3
S'Governor Sarah Palin (GOV sponsored) [governor@alaska.gov] -- RE Military_and_Veterans_Affairs'
p402
sg5
g6
sg7
(lp403
g395
asg9
S'./sarahs_inbox/parsed/msnbc/txt/10158.txt'
p404
sg10
g5
sg12
g30
sg31
S'10158.txt'
p405
sbasg31
S'Topic: 3'
p406
sba(i__main__
inode
p407
(dp408
g3
S'state, senator, senate, would, bill, house, republican, vote, election, president'
p409
sg5
g6
sg7
(lp410
g14
asg9
g4
sg10
g23
sg12
(lp411
(i__main__
inode
p412
(dp413
g3
S'gov.sarah@yahoo.com -- Re Preparation and roll-out related to filing of lawsuit against Mercer'
p414
sg5
g6
sg7
(lp415
g407
asg9
S'./sarahs_inbox/parsed/msnbc/txt/10112.txt'
p416
sg10
g5
sg12
g30
sg31
S'10112.txt'
p417
sba(i__main__
inode
p418
(dp419
g3
S'Governor Sarah Palin (GOV sponsored) [govemor@alaska.gov] -- RE Other'
p420
sg5
g6
sg7
(lp421
g407
asg9
S'./sarahs_inbox/parsed/msnbc/txt/10126.txt'
p422
sg10
g5
sg12
g30
sg31
S'10126.txt'
p423
sbasg31
S'Topic: 4'
p424
sba(i__main__
inode
p425
(dp426
g3
S'governor, event, would, day, travel, anchorage, family, trip, attend, meeting'
p427
sg5
g6
sg7
(lp428
g14
asg9
g4
sg10
g23
sg12
(lp429
(i__main__
inode
p430
(dp431
g3
S'Fagerstrom, Erika (GOV) VO=SOA/OU=FIRST ADMINISTRATIVE -- Educ.Comm. Thompson- Request to attend Anchorage Mtg.on "Drop out issue" Fri. 4/18 (10-2pm.)'
p432
sg5
g6
sg7
(lp433
g425
asg9
S'./sarahs_inbox/parsed/msnbc/txt/1005.txt'
p434
sg10
g5
sg12
g30
sg31
S'1005.txt'
p435
sba(i__main__
inode
p436
(dp437
g3
S'Mason , Janice L (GOV) [/O=SOA/OU=FIRST ADMINISTRATIVE -- RE Military_and_VeteransAffairs'
p438
sg5
g6
sg7
(lp439
g425
asg9
S'./sarahs_inbox/parsed/msnbc/txt/10114.txt'
p440
sg10
g5
sg12
g30
sg31
g206
sba(i__main__
inode
p441
(dp442
g3
S'Mason , Janice L (GOV) [/O=SOA/OU=FIRST ADMINISTRATIVE -- Troops Returning'
p443
sg5
g6
sg7
(lp444
g425
asg9
S'./sarahs_inbox/parsed/msnbc/txt/10117.txt'
p445
sg10
g5
sg12
g30
sg31
g68
sba(i__main__
inode
p446
(dp447
g3
S'gov.sarah@yahoo.com -- Re Scheduling'
p448
sg5
g6
sg7
(lp449
g425
asg9
S'./sarahs_inbox/parsed/msnbc/txt/10130.txt'
p450
sg10
g5
sg12
g30
sg31
g247
sba(i__main__
inode
p451
(dp452
g3
S'gov.sarah@yahoo.com -- Re Scheduling'
p453
sg5
g6
sg7
(lp454
g425
asg9
S'./sarahs_inbox/parsed/msnbc/txt/10131.txt'
p455
sg10
g5
sg12
g30
sg31
g253
sba(i__main__
inode
p456
(dp457
g3
S'gov.sarah@yahoo.com -- Re Scheduling'
p458
sg5
g6
sg7
(lp459
g425
asg9
S'./sarahs_inbox/parsed/msnbc/txt/10137.txt'
p460
sg10
g5
sg12
g30
sg31
g271
sba(i__main__
inode
p461
(dp462
g3
S'Governor Sarah Palin (GOV sponsored) [governor@alaska.gov] -- RE Military_and_Veterans_Affairs'
p463
sg5
g6
sg7
(lp464
g425
asg9
S'./sarahs_inbox/parsed/msnbc/txt/10158.txt'
p465
sg10
g5
sg12
g30
sg31
g405
sba(i__main__
inode
p466
(dp467
g3
S'gov.sarah@yahoo.com -- Re Scheduling'
p468
sg5
g6
sg7
(lp469
g425
asg9
S'./sarahs_inbox/parsed/msnbc/txt/10171.txt'
p470
sg10
g5
sg12
g30
sg31
S'10171.txt'
p471
sba(i__main__
inode
p472
(dp473
g3
S'gov.sarah@yahoo.com -- Re School'
p474
sg5
g6
sg7
(lp475
g425
asg9
S'./sarahs_inbox/parsed/msnbc/txt/10180.txt'
p476
sg10
g5
sg12
g30
sg31
S'10180.txt'
p477
sbasg31
S'Topic: 5'
p478
sba(i__main__
inode
p479
(dp480
g3
S'sent, one, gov, blackberry, device, cellular, pra, unknown, thanks, janice'
p481
sg5
g6
sg7
(lp482
g14
asg9
g4
sg10
g23
sg12
(lp483
(i__main__
inode
p484
(dp485
g3
S'Frye, Ivy J (DOA) [/O=SOA/OU=FIRST ADMINISTRATIVE -- Fw Cell phone reimbursement'
p486
sg5
g6
sg7
(lp487
g479
asg9
S'./sarahs_inbox/parsed/msnbc/txt/1001.txt'
p488
sg10
g5
sg12
g30
sg31
g170
sba(i__main__
inode
p489
(dp490
g3
S'gov.sarah@yahoo.com -- Re PSA with Todd'
p491
sg5
g6
sg7
(lp492
g479
asg9
S'./sarahs_inbox/parsed/msnbc/txt/10109.txt'
p493
sg10
g5
sg12
g30
sg31
g50
sba(i__main__
inode
p494
(dp495
g3
S"Governor Sarah Palin (GOV sponsored) [governor@alaska.govj -- FW George Brown's granddaughter"
p496
sg5
g6
sg7
(lp497
g479
asg9
S'./sarahs_inbox/parsed/msnbc/txt/10110.txt'
p498
sg10
g5
sg12
g30
sg31
g200
sba(i__main__
inode
p499
(dp500
g3
S'gov.sarah@yahoo.com -- Re Preparation and roll-out related to filing of lawsuit against Mercer'
p501
sg5
g6
sg7
(lp502
g479
asg9
S'./sarahs_inbox/parsed/msnbc/txt/10112.txt'
p503
sg10
g5
sg12
g30
sg31
g417
sba(i__main__
inode
p504
(dp505
g3
S'Mason , Janice L (GOV) I/O=SOA/OU=FIRST ADMINISTRATIVE -- RE Military_and Veterans_Affairs'
p506
sg5
g6
sg7
(lp507
g479
asg9
S'./sarahs_inbox/parsed/msnbc/txt/10113.txt'
p508
sg10
g5
sg12
g30
sg31
g56
sba(i__main__
inode
p509
(dp510
g3
S'Mason , Janice L (GOV) [/O=SOA/OU=FIRST ADMINISTRATIVE -- Luggage'
p511
sg5
g6
sg7
(lp512
g479
asg9
S'./sarahs_inbox/parsed/msnbc/txt/10115.txt'
p513
sg10
g5
sg12
g30
sg31
g62
sba(i__main__
inode
p514
(dp515
g3
S'Mason , Janice L (GOV) [/O=SOA/OU=FIRST ADMINISTRATIVE -- Troops Returning'
p516
sg5
g6
sg7
(lp517
g479
asg9
S'./sarahs_inbox/parsed/msnbc/txt/10117.txt'
p518
sg10
g5
sg12
g30
sg31
g68
sba(i__main__
inode
p519
(dp520
g3
S'Sarah Palin [gov.sarah@yahoo.com] -- Re AK Right to Life Remarks'
p521
sg5
g6
sg7
(lp522
g479
asg9
S'./sarahs_inbox/parsed/msnbc/txt/10120.txt'
p523
sg10
g5
sg12
g30
sg31
S'10120.txt'
p524
sba(i__main__
inode
p525
(dp526
g3
S'gov.sarah @yahoo.com -- CSI Alaska'
p527
sg5
g6
sg7
(lp528
g479
asg9
S'./sarahs_inbox/parsed/msnbc/txt/10125.txt'
p529
sg10
g5
sg12
g30
sg31
S'10125.txt'
p530
sba(i__main__
inode
p531
(dp532
g3
S'PARNELL, S (GOV sponsored) [/O=SOA/OU=FIRST ADMINISTRATIVE -- Re Thinking out loud'
p533
sg5
g6
sg7
(lp534
g479
asg9
S'./sarahs_inbox/parsed/msnbc/txt/10127.txt'
p535
sg10
g5
sg12
g30
sg31
g230
sba(i__main__
inode
p536
(dp537
g3
S'gov.sarah@yahoo.com -- Re Thinking out loud'
p538
sg5
g6
sg7
(lp539
g479
asg9
S'./sarahs_inbox/parsed/msnbc/txt/10128.txt'
p540
sg10
g5
sg12
g30
sg31
g236
sba(i__main__
inode
p541
(dp542
g3
S'gov.sarah@yahoo.com -- Re Scheduling'
p543
sg5
g6
sg7
(lp544
g479
asg9
S'./sarahs_inbox/parsed/msnbc/txt/10130.txt'
p545
sg10
g5
sg12
g30
sg31
g247
sba(i__main__
inode
p546
(dp547
g3
S'gov.sarah@yahoo.com -- Re Scheduling'
p548
sg5
g6
sg7
(lp549
g479
asg9
S'./sarahs_inbox/parsed/msnbc/txt/10131.txt'
p550
sg10
g5
sg12
g30
sg31
g253
sba(i__main__
inode
p551
(dp552
g3
S'gov. sarah@yahoo.com -- Re Telephone Calls - Drop Out Students'
p553
sg5
g6
sg7
(lp554
g479
asg9
S'./sarahs_inbox/parsed/msnbc/txt/10132.txt'
p555
sg10
g5
sg12
g30
sg31
g259
sba(i__main__
inode
p556
(dp557
g3
S'gov.sarah@yahoo.com -- Re Welcome to WOW! - News'
p558
sg5
g6
sg7
(lp559
g479
asg9
S'./sarahs_inbox/parsed/msnbc/txt/10133.txt'
p560
sg10
g5
sg12
g30
sg31
S'10133.txt'
p561
sba(i__main__
inode
p562
(dp563
g3
S'Colberg , Talis J (LAW) [/O=SOA/OU=FIRST ADMINISTRATIVE -- Re Welcome to WOW! - News'
p564
sg5
g6
sg7
(lp565
g479
asg9
S'./sarahs_inbox/parsed/msnbc/txt/10134.txt'
p566
sg10
g5
sg12
g30
sg31
S'10134.txt'
p567
sba(i__main__
inode
p568
(dp569
g3
S'Colberg , Talis J (LAW) [/O=SOA/OU=FIRST ADMINISTRATIVE -- Re Welcome to WOW! - News'
p570
sg5
g6
sg7
(lp571
g479
asg9
S'./sarahs_inbox/parsed/msnbc/txt/10135.txt'
p572
sg10
g5
sg12
g30
sg31
S'10135.txt'
p573
sba(i__main__
inode
p574
(dp575
g3
S'gov.sarah@yahoo.com -- Re Present from paulette'
p576
sg5
g6
sg7
(lp577
g479
asg9
S'./sarahs_inbox/parsed/msnbc/txt/10136.txt'
p578
sg10
g5
sg12
g30
sg31
g265
sba(i__main__
inode
p579
(dp580
g3
S'gov.sarah@yahoo.com -- Re Scheduling'
p581
sg5
g6
sg7
(lp582
g479
asg9
S'./sarahs_inbox/parsed/msnbc/txt/10137.txt'
p583
sg10
g5
sg12
g30
sg31
g271
sba(i__main__
inode
p584
(dp585
g3
S'Mason , Janice L (GOV) [/O=SOA/OU=FIRST ADMINISTRATIVE -- Re Scheduling'
p586
sg5
g6
sg7
(lp587
g479
asg9
S'./sarahs_inbox/parsed/msnbc/txt/10139.txt'
p588
sg10
g5
sg12
g30
sg31
g86
sba(i__main__
inode
p589
(dp590
g3
S'Mason, Janice L (GOV) [/O=SOA/OU=FIRST ADMINISTRATIVE -- Re Scheduling'
p591
sg5
g6
sg7
(lp592
g479
asg9
S'./sarahs_inbox/parsed/msnbc/txt/10140.txt'
p593
sg10
g5
sg12
g30
sg31
g98
sba(i__main__
inode
p594
(dp595
g3
S'Mason, Janice L (GOV) [/O=SOA/OU=FIRST ADMINISTRATIVE -- Telephone Calls - Drop Out Students'
p596
sg5
g6
sg7
(lp597
g479
asg9
S'./sarahs_inbox/parsed/msnbc/txt/10142.txt'
p598
sg10
g5
sg12
g30
sg31
g104
sba(i__main__
inode
p599
(dp600
g3
S'Mason , Janice L (GOV) [/O=SOA/OU=FIRST ADMINISTRATIVE -- Scheduling'
p601
sg5
g6
sg7
(lp602
g479
asg9
S'./sarahs_inbox/parsed/msnbc/txt/10143.txt'
p603
sg10
g5
sg12
g30
sg31
g287
sba(i__main__
inode
p604
(dp605
g3
S'Morgan , Katryn L (GOV) [/O=SOA/OU=FIRST ADMINISTRATIVE -- AK Right to Life Remarks'
p606
sg5
g6
sg7
(lp607
g479
asg9
S'./sarahs_inbox/parsed/msnbc/txt/10145.txt'
p608
sg10
g5
sg12
g30
sg31
g299
sba(i__main__
inode
p609
(dp610
g3
S'Morgan, Katryn L (GOV) [/O=SOA/OU=FIRST ADMINISTRATIVE -- AK Right to Life Remarks'
p611
sg5
g6
sg7
(lp612
g479
asg9
S'./sarahs_inbox/parsed/msnbc/txt/10151.txt'
p613
sg10
g5
sg12
g30
sg31
g116
sba(i__main__
inode
p614
(dp615
g3
S'Rutherford, Marty K (DNR) [/O=SOA/OU=FIRST ADMINISTRATIVE -- FW Confirmation of the Novemberl 5th discussion'
p616
sg5
g6
sg7
(lp617
g479
asg9
S'./sarahs_inbox/parsed/msnbc/txt/10152.txt'
p618
sg10
g5
sg12
g30
sg31
g311
sba(i__main__
inode
p619
(dp620
g3
S'gov.sarah@yahoo.com -- Re AK Right to Life Remarks'
p621
sg5
g6
sg7
(lp622
g479
asg9
S'./sarahs_inbox/parsed/msnbc/txt/10154.txt'
p623
sg10
g5
sg12
g30
sg31
S'10154.txt'
p624
sba(i__main__
inode
p625
(dp626
g3
S'Colberg, Tails J (LAW) [/O=SOA/OU=FIRST ADMINISTRATIVE -- Today.'
p627
sg5
g6
sg7
(lp628
g479
asg9
S'./sarahs_inbox/parsed/msnbc/txt/10155.txt'
p629
sg10
g5
sg12
g30
sg31
g122
sba(i__main__
inode
p630
(dp631
g3
S'Fagerstrom, Erika (GOV) [/O=SOA/OU=FIRST ADMINISTRATIVE -- Flights'
p632
sg5
g6
sg7
(lp633
g479
asg9
S'./sarahs_inbox/parsed/msnbc/txt/1016.txt'
p634
sg10
g5
sg12
g30
sg31
g128
sba(i__main__
inode
p635
(dp636
g3
S'gov.sarah@yahoo.com -- Re Bridge DOT bond'
p637
sg5
g6
sg7
(lp638
g479
asg9
S'./sarahs_inbox/parsed/msnbc/txt/10163.txt'
p639
sg10
g5
sg12
g30
sg31
S'10163.txt'
p640
sba(i__main__
inode
p641
(dp642
g3
S'gov.sarah@yahoo.com -- Ktuu'
p643
sg5
g6
sg7
(lp644
g479
asg9
S'./sarahs_inbox/parsed/msnbc/txt/10167.txt'
p645
sg10
g5
sg12
g30
sg31
S'10167.txt'
p646
sba(i__main__
inode
p647
(dp648
g3
S'gov.sarah@yahoo.com -- Re Conoco'
p649
sg5
g6
sg7
(lp650
g479
asg9
S'./sarahs_inbox/parsed/msnbc/txt/10168.txt'
p651
sg10
g5
sg12
g30
sg31
g333
sba(i__main__
inode
p652
(dp653
g3
S'gov.sarah@yahoo.com -- Re Conoco'
p654
sg5
g6
sg7
(lp655
g479
asg9
S'./sarahs_inbox/parsed/msnbc/txt/10169.txt'
p656
sg10
g5
sg12
g30
sg31
g339
sba(i__main__
inode
p657
(dp658
g3
S'gov.sarah@yahoo.com -- Re Scheduling'
p659
sg5
g6
sg7
(lp660
g479
asg9
S'./sarahs_inbox/parsed/msnbc/txt/10171.txt'
p661
sg10
g5
sg12
g30
sg31
g471
sba(i__main__
inode
p662
(dp663
g3
S'PARNELL, S (GOV sponsored) [/O=SOA/OU=FIRST ADMINISTRATIVE -- Re Fagan'
p664
sg5
g6
sg7
(lp665
g479
asg9
S'./sarahs_inbox/parsed/msnbc/txt/10172.txt'
p666
sg10
g5
sg12
g30
sg31
g345
sba(i__main__
inode
p667
(dp668
g3
S'gov.sarah @yahoo.com -- Re Fagan'
p669
sg5
g6
sg7
(lp670
g479
asg9
S'./sarahs_inbox/parsed/msnbc/txt/10173.txt'
p671
sg10
g5
sg12
g30
sg31
g351
sba(i__main__
inode
p672
(dp673
g3
S'PARNELL, S (GOV sponsored) [/O=SOA/OU=FIRST ADMINISTRATIVE -- Re Fagan'
p674
sg5
g6
sg7
(lp675
g479
asg9
S'./sarahs_inbox/parsed/msnbc/txt/10174.txt'
p676
sg10
g5
sg12
g30
sg31
g357
sba(i__main__
inode
p677
(dp678
g3
S'gov.sarah@yahoo.com -- Re Fagan'
p679
sg5
g6
sg7
(lp680
g479
asg9
S'./sarahs_inbox/parsed/msnbc/txt/10175.txt'
p681
sg10
g5
sg12
g30
sg31
g363
sba(i__main__
inode
p682
(dp683
g3
S'PARNELL, S (GOV sponsored) [/O=SOA/OU=FIRST ADMINISTRATIVE -- Re Fagan'
p684
sg5
g6
sg7
(lp685
g479
asg9
S'./sarahs_inbox/parsed/msnbc/txt/10176.txt'
p686
sg10
g5
sg12
g30
sg31
g152
sba(i__main__
inode
p687
(dp688
g3
S'gov.sarah@yahoo.com -- Fagan'
p689
sg5
g6
sg7
(lp690
g479
asg9
S'./sarahs_inbox/parsed/msnbc/txt/10177.txt'
p691
sg10
g5
sg12
g30
sg31
S'10177.txt'
p692
sba(i__main__
inode
p693
(dp694
g3
S'Balash, Joseph R (GOV) [/O=SOA/OU=FIRST ADMINISTRATIVE -- Re Energy pts'
p695
sg5
g6
sg7
(lp696
g479
asg9
S'./sarahs_inbox/parsed/msnbc/txt/10178.txt'
p697
sg10
g5
sg12
g30
sg31
g158
sba(i__main__
inode
p698
(dp699
g3
S'gov.sarah @yahoo.com -- Energy pts'
p700
sg5
g6
sg7
(lp701
g479
asg9
S'./sarahs_inbox/parsed/msnbc/txt/10179.txt'
p702
sg10
g5
sg12
g30
sg31
S'10179.txt'
p703
sba(i__main__
inode
p704
(dp705
g3
S'Perry, Kristina Y (GOV) [kris.perry@alaska.gov] -- Re Philadelphia'
p706
sg5
g6
sg7
(lp707
g479
asg9
S'./sarahs_inbox/parsed/msnbc/txt/1018.txt'
p708
sg10
g5
sg12
g30
sg31
S'1018.txt'
p709
sba(i__main__
inode
p710
(dp711
g3
S'gov.sarah@yahoo.com -- Re School'
p712
sg5
g6
sg7
(lp713
g479
asg9
S'./sarahs_inbox/parsed/msnbc/txt/10180.txt'
p714
sg10
g5
sg12
g30
sg31
g477
sba(i__main__
inode
p715
(dp716
g3
S'gov.sarah@yahoo.com -- Re AEA Director'
p717
sg5
g6
sg7
(lp718
g479
asg9
S'./sarahs_inbox/parsed/msnbc/txt/10181.txt'
p719
sg10
g5
sg12
g30
sg31
g369
sba(i__main__
inode
p720
(dp721
g3
S'gov.sarah@yahoo.com -- Re AK Right to Life Remarks'
p722
sg5
g6
sg7
(lp723
g479
asg9
S'./sarahs_inbox/parsed/msnbc/txt/10182.txt'
p724
sg10
g5
sg12
g30
sg31
S'10182.txt'
p725
sba(i__main__
inode
p726
(dp727
g3
S'gov.sarah@yahoo.com -- AEA Director'
p728
sg5
g6
sg7
(lp729
g479
asg9
S'./sarahs_inbox/parsed/msnbc/txt/10185.txt'
p730
sg10
g5
sg12
g30
sg31
g387
sba(i__main__
inode
p731
(dp732
g3
S'gov.sarah@yahoo.com -- Fw AEA tomorrow'
p733
sg5
g6
sg7
(lp734
g479
asg9
S'./sarahs_inbox/parsed/msnbc/txt/10187.txt'
p735
sg10
g5
sg12
g30
sg31
S'10187.txt'
p736
sbasg31
S'Topic: 6'
p737
sba(i__main__
inode
p738
(dp739
g3
S'contract, sep, state, told, pra, valley, prayer, service, said, dan'
p740
sg5
g6
sg7
(lp741
g14
asg9
g4
sg10
g23
sg12
(lp742
(i__main__
inode
p743
(dp744
g3
S'Fagerstrom, Erika (GOV) [/O=SOA/OU=FIRST ADMINISTRATIVE -- Water Pipe Replacement Cost'
p745
sg5
g6
sg7
(lp746
g738
asg9
S'./sarahs_inbox/parsed/msnbc/txt/1000.txt'
p747
sg10
g5
sg12
g30
sg31
S'1000.txt'
p748
sba(i__main__
inode
p749
(dp750
g3
S'Fagerstrom, Erika (GOV) [erika.fagerstrom@alaska.gov] -- Flight Information Friday, March 28th Travel Jnu-Anc. Fit. 67'
p751
sg5
g6
sg7
(lp752
g738
asg9
S'./sarahs_inbox/parsed/msnbc/txt/1004.txt'
p753
sg10
g5
sg12
g30
sg31
S'1004.txt'
p754
sba(i__main__
inode
p755
(dp756
g3
S'gov.sarah@yahoo.com -- Re School'
p757
sg5
g6
sg7
(lp758
g738
asg9
S'./sarahs_inbox/parsed/msnbc/txt/10180.txt'
p759
sg10
g5
sg12
g30
sg31
g477
sbasg31
S'Topic: 7'
p760
sba(i__main__
inode
p761
(dp762
g3
S'gas, alaska, oil, state, pipeline, agia, project, company, said, governor'
p763
sg5
g6
sg7
(lp764
g14
asg9
g4
sg10
g23
sg12
(lp765
(i__main__
inode
p766
(dp767
g3
S'Mason , Janice L (GOV) [/O=SOA/OU=FIRST ADMINISTRATIVE -- Scheduling'
p768
sg5
g6
sg7
(lp769
g761
asg9
S'./sarahs_inbox/parsed/msnbc/txt/10143.txt'
p770
sg10
g5
sg12
g30
sg31
g287
sba(i__main__
inode
p771
(dp772
g3
S'Leschper, Beth (GOV) [beth.leschper@alaska.gov] -- updated talking points'
p773
sg5
g6
sg7
(lp774
g761
asg9
S'./sarahs_inbox/parsed/msnbc/txt/10146.txt'
p775
sg10
g5
sg12
g30
sg31
S'10146.txt'
p776
sba(i__main__
inode
p777
(dp778
g3
S'Governor Sarah Palin (GOV sponsored) [governor@ alaska.gov] -- Voices Across Alaska State Budget Priorities'
p779
sg5
g6
sg7
(lp780
g761
asg9
S'./sarahs_inbox/parsed/msnbc/txt/10148.txt'
p781
sg10
g5
sg12
g30
sg31
S'10148.txt'
p782
sba(i__main__
inode
p783
(dp784
g3
S'Frye, Ivy J (DOA) [/O=SOA/OU=FIRST ADMINISTRATIVE GROUP/CN=RECIPIENTS/CN=IJFRYE] -- great letter to the editor from Phil Schneider'
p785
sg5
g6
sg7
(lp786
g761
asg9
S'./sarahs_inbox/parsed/msnbc/txt/10156.txt'
p787
sg10
g5
sg12
g30
sg31
S'10156.txt'
p788
sba(i__main__
inode
p789
(dp790
g3
S'gov.sarah@yahoo.com -- Re Conoco'
p791
sg5
g6
sg7
(lp792
g761
asg9
S'./sarahs_inbox/parsed/msnbc/txt/10168.txt'
p793
sg10
g5
sg12
g30
sg31
g333
sba(i__main__
inode
p794
(dp795
g3
S'gov.sarah@yahoo.com -- Re Conoco'
p796
sg5
g6
sg7
(lp797
g761
asg9
S'./sarahs_inbox/parsed/msnbc/txt/10169.txt'
p798
sg10
g5
sg12
g30
sg31
g339
sba(i__main__
inode
p799
(dp800
g3
S'gov.sarah@yahoo.com -- Re Conoco'
p801
sg5
g6
sg7
(lp802
g761
asg9
S'./sarahs_inbox/parsed/msnbc/txt/10183.txt'
p803
sg10
g5
sg12
g30
sg31
g375
sba(i__main__
inode
p804
(dp805
g3
S'Frye, Ivy J (DOA) [/O=SOA/OU=FIRST ADMINISTRATIVE -- Fw Conoco'
p806
sg5
g6
sg7
(lp807
g761
asg9
S'./sarahs_inbox/parsed/msnbc/txt/10186.txt'
p808
sg10
g5
sg12
g30
sg31
g393
sbasg31
S'Topic: 8'
p809
sba(i__main__
inode
p810
(dp811
g3
S'gov, privileged, personal, material, redacted, sharon, alaska, pra, leighow, sent'
p812
sg5
g6
sg7
(lp813
g14
asg9
g4
sg10
g23
sg12
(lp814
(i__main__
inode
p815
(dp816
g3
S'gov.sarah@yahoo.com -- Re PSA with Todd'
p817
sg5
g6
sg7
(lp818
g810
asg9
S'./sarahs_inbox/parsed/msnbc/txt/10109.txt'
p819
sg10
g5
sg12
g30
sg31
g50
sba(i__main__
inode
p820
(dp821
g3
S'Sarah Palin [gov.sarah@yahoo.com] -- Re AK Right to Life Remarks'
p822
sg5
g6
sg7
(lp823
g810
asg9
S'./sarahs_inbox/parsed/msnbc/txt/10120.txt'
p824
sg10
g5
sg12
g30
sg31
g524
sba(i__main__
inode
p825
(dp826
g3
S'gov.sarah@yahoo.com -- Re Welcome to WOW! - News'
p827
sg5
g6
sg7
(lp828
g810
asg9
S'./sarahs_inbox/parsed/msnbc/txt/10122.txt'
p829
sg10
g5
sg12
g30
sg31
S'10122.txt'
p830
sba(i__main__
inode
p831
(dp832
g3
S'Colberg, Talis J (LAW) [/O=SOA/OU=FIRST ADMINISTRATIVE -- Re Welcome to WOW! - News'
p833
sg5
g6
sg7
(lp834
g810
asg9
S'./sarahs_inbox/parsed/msnbc/txt/10123.txt'
p835
sg10
g5
sg12
g30
sg31
S'10123.txt'
p836
sba(i__main__
inode
p837
(dp838
g3
S'gov.sarah @yahoo.com -- Fw Welcome to WOW! - News'
p839
sg5
g6
sg7
(lp840
g810
asg9
S'./sarahs_inbox/parsed/msnbc/txt/10124.txt'
p841
sg10
g5
sg12
g30
sg31
S'10124.txt'
p842
sba(i__main__
inode
p843
(dp844
g3
S'PARNELL, S (GOV sponsored) [/O=SOA/OU=FIRST ADMINISTRATIVE -- Re Thinking out loud'
p845
sg5
g6
sg7
(lp846
g810
asg9
S'./sarahs_inbox/parsed/msnbc/txt/10127.txt'
p847
sg10
g5
sg12
g30
sg31
g230
sba(i__main__
inode
p848
(dp849
g3
S'gov.sarah@yahoo.com -- Re Welcome to WOW! - News'
p850
sg5
g6
sg7
(lp851
g810
asg9
S'./sarahs_inbox/parsed/msnbc/txt/10133.txt'
p852
sg10
g5
sg12
g30
sg31
g561
sba(i__main__
inode
p853
(dp854
g3
S'Colberg , Talis J (LAW) [/O=SOA/OU=FIRST ADMINISTRATIVE -- Re Welcome to WOW! - News'
p855
sg5
g6
sg7
(lp856
g810
asg9
S'./sarahs_inbox/parsed/msnbc/txt/10134.txt'
p857
sg10
g5
sg12
g30
sg31
g567
sba(i__main__
inode
p858
(dp859
g3
S'Colberg , Talis J (LAW) [/O=SOA/OU=FIRST ADMINISTRATIVE -- Re Welcome to WOW! - News'
p860
sg5
g6
sg7
(lp861
g810
asg9
S'./sarahs_inbox/parsed/msnbc/txt/10135.txt'
p862
sg10
g5
sg12
g30
sg31
g573
sba(i__main__
inode
p863
(dp864
g3
S'Morgan , Katryn L (GOV) [/O=SOA/OU=FIRST ADMINISTRATIVE -- AK Right to Life Remarks'
p865
sg5
g6
sg7
(lp866
g810
asg9
S'./sarahs_inbox/parsed/msnbc/txt/10145.txt'
p867
sg10
g5
sg12
g30
sg31
g299
sba(i__main__
inode
p868
(dp869
g3
S'Jackson, Karleen K (HSS) [karleen.jackson@aiaska.gov] -- RE Governors Budget Priorities Web Survey'
p870
sg5
g6
sg7
(lp871
g810
asg9
S'./sarahs_inbox/parsed/msnbc/txt/;10147.txt'
p872
sg10
g5
sg12
g30
sg31
S';10147.txt'
p873
sba(i__main__
inode
p874
(dp875
g3
S"Palin, Sarah (GOV sponsored ) [govpalin@alaska.gov] -- Re Murph O'brien"
p876
sg5
g6
sg7
(lp877
g810
asg9
S'./sarahs_inbox/parsed/msnbc/txt/10170.txt'
p878
sg10
g5
sg12
g30
sg31
S'10170.txt'
p879
sbasg31
S'Topic: 9'
p880
sba(i__main__
inode
p881
(dp882
g3
S'budget, project, karen, funding, cut, gov, capital, million, fund, request'
p883
sg5
g6
sg7
(lp884
g14
asg9
g4
sg10
g23
sg12
(lp885
(i__main__
inode
p886
(dp887
g3
S'Palin, Sarah (GOV sponsored) [govpalinalaska.gov] -- Re FYI'
p888
sg5
g6
sg7
(lp889
g881
asg9
S'./sarahs_inbox/parsed/msnbc/txt/10111.txt'
p890
sg10
g5
sg12
g30
sg31
S'10111.txt'
p891
sba(i__main__
inode
p892
(dp893
g3
S'John Katz jwkatz ALASKADC.org] -- Federal Funding/State Budget'
p894
sg5
g6
sg7
(lp895
g881
asg9
S'./sarahs_inbox/parsed/msnbc/txt/10144.txt'
p896
sg10
g5
sg12
g30
sg31
g293
sba(i__main__
inode
p897
(dp898
g3
S'Governor Sarah Palin (GOV sponsored) [governor@ alaska.gov] -- Voices Across Alaska State Budget Priorities'
p899
sg5
g6
sg7
(lp900
g881
asg9
S'./sarahs_inbox/parsed/msnbc/txt/10148.txt'
p901
sg10
g5
sg12
g30
sg31
g782
sba(i__main__
inode
p902
(dp903
g3
S'gov.sarah@yahoo.com -- Re Bridge DOT bond'
p904
sg5
g6
sg7
(lp905
g881
asg9
S'./sarahs_inbox/parsed/msnbc/txt/10163.txt'
p906
sg10
g5
sg12
g30
sg31
g640
sba(i__main__
inode
p907
(dp908
g3
S'Kris Norosz [KrisN@Icic[eSeafoods.com] -- Support for the UAF "fisheries" line item'
p909
sg5
g6
sg7
(lp910
g881
asg9
S'./sarahs_inbox/parsed/msnbc/txt/10166.txt'
p911
sg10
g5
sg12
g30
sg31
S'10166.txt'
p912
sba(i__main__
inode
p913
(dp914
g3
S'Rehfeld, Karen J (GOV) [/O=SOA/OU=FIRST ADMINISTRATIVE -- RE Support for the UAF "fisheries" line item'
p915
sg5
g6
sg7
(lp916
g881
asg9
S'./sarahs_inbox/parsed/msnbc/txt/10188.txt'
p917
sg10
g5
sg12
g30
sg31
S'10188.txt'
p918
sba(i__main__
inode
p919
(dp920
g3
S'Rehfeld, Karen J (GOV) [/O=SOA/OU=FIRST ADMINISTRATIVE -- RE Univ. of Alaska Funding - Fisheries'
p921
sg5
g6
sg7
(lp922
g881
asg9
S'./sarahs_inbox/parsed/msnbc/txt/10189.txt'
p923
sg10
g5
sg12
g30
sg31
S'10189.txt'
p924
sbasg31
S'Topic: 10'
p925
sba(i__main__
inode
p926
(dp927
g3
S'com, http, net, www, rep, laa, state, legis, exct, adn'
p928
sg5
g6
sg7
(lp929
g14
asg9
g4
sg10
g23
sg12
(lp930
(i__main__
inode
p931
(dp932
g3
S"Fagerstrom, Erika (GOV) [erika.fagerstrom@alaska.gov] -- RE FYI- RSVP Spouses' Luncheon Friday, March 28, 2008 1200 to 130pm."
p933
sg5
g6
sg7
(lp934
g926
asg9
S'./sarahs_inbox/parsed/msnbc/txt/;1006.txt'
p935
sg10
g5
sg12
g30
sg31
g44
sba(i__main__
inode
p936
(dp937
g3
S" -- Rep. Olson's Spouse not attending"
p938
sg5
g6
sg7
(lp939
g926
asg9
S'./sarahs_inbox/parsed/msnbc/txt/1008.txt'
p940
sg10
g5
sg12
g30
sg31
S'1008.txt'
p941
sba(i__main__
inode
p942
(dp943
g3
S'Linda Kovac [Ikovac@chugiakcouncil.org] -- Chugiak Community Council Request re Old Glenn Highway Project'
p944
sg5
g6
sg7
(lp945
g926
asg9
S'./sarahs_inbox/parsed/msnbc/txt/10160.txt'
p946
sg10
g5
sg12
g30
sg31
S'10160.txt'
p947
sbasg31
S'Topic: 11'
p948
sba(i__main__
inode
p949
(dp950
g3
S'erika, governor, alaska, roston, todd, house, fagerstrom, juneau, phone, thanks'
p951
sg5
g6
sg7
(lp952
g14
asg9
g4
sg10
g23
sg12
(lp953
(i__main__
inode
p954
(dp955
g3
S'Fagerstrom, Erika (GOV) [/O=SOA/OU=FIRST ADMINISTRATIVE -- Water Pipe Replacement Cost'
p956
sg5
g6
sg7
(lp957
g949
asg9
S'./sarahs_inbox/parsed/msnbc/txt/1000.txt'
p958
sg10
g5
sg12
g30
sg31
g748
sba(i__main__
inode
p959
(dp960
g3
S'Fagerstrom, Erika (GOV) [/O=SOA/OU=FIRST ADMINISTRATIVE -- Travel Fri. 3/28'
p961
sg5
g6
sg7
(lp962
g949
asg9
S'./sarahs_inbox/parsed/msnbc/txt/1002.txt'
p963
sg10
g5
sg12
g30
sg31
g32
sba(i__main__
inode
p964
(dp965
g3
S'Fagerstrom, Erika (GOV) [/O=SOA/OU=FIRST ADMINISTRATIVE -- RE Romer'
p966
sg5
g6
sg7
(lp967
g949
asg9
S'./sarahs_inbox/parsed/msnbc/txt/1003.txt'
p968
sg10
g5
sg12
g30
sg31
g38
sba(i__main__
inode
p969
(dp970
g3
S'Fagerstrom, Erika (GOV) [erika.fagerstrom@alaska.gov] -- Flight Information Friday, March 28th Travel Jnu-Anc. Fit. 67'
p971
sg5
g6
sg7
(lp972
g949
asg9
S'./sarahs_inbox/parsed/msnbc/txt/1004.txt'
p973
sg10
g5
sg12
g30
sg31
g754
sba(i__main__
inode
p974
(dp975
g3
S'Fagerstrom, Erika (GOV) VO=SOA/OU=FIRST ADMINISTRATIVE -- Educ.Comm. Thompson- Request to attend Anchorage Mtg.on "Drop out issue" Fri. 4/18 (10-2pm.)'
p976
sg5
g6
sg7
(lp977
g949
asg9
S'./sarahs_inbox/parsed/msnbc/txt/1005.txt'
p978
sg10
g5
sg12
g30
sg31
g435
sba(i__main__
inode
p979
(dp980
g3
S"Fagerstrom, Erika (GOV) [erika.fagerstrom@alaska.gov] -- RE FYI- RSVP Spouses' Luncheon Friday, March 28, 2008 1200 to 130pm."
p981
sg5
g6
sg7
(lp982
g949
asg9
S'./sarahs_inbox/parsed/msnbc/txt/;1006.txt'
p983
sg10
g5
sg12
g30
sg31
g44
sba(i__main__
inode
p984
(dp985
g3
S'fek9wnr@yahoo.com -- Re Call'
p986
sg5
g6
sg7
(lp987
g949
asg9
S'./sarahs_inbox/parsed/msnbc/txt/1007.txt'
p988
sg10
g5
sg12
g30
sg31
S'1007.txt'
p989
sba(i__main__
inode
p990
(dp991
g3
S" -- Rep. Olson's Spouse not attending"
p992
sg5
g6
sg7
(lp993
g949
asg9
S'./sarahs_inbox/parsed/msnbc/txt/1008.txt'
p994
sg10
g5
sg12
g30
sg31
g941
sba(i__main__
inode
p995
(dp996
g3
S"Fagerstrom, Erika (GOV) [erika.fagerstrom@alaska.gov] -- Final RSVP List- Spouses' Luncheon 1200-130pm."
p997
sg5
g6
sg7
(lp998
g949
asg9
S'./sarahs_inbox/parsed/msnbc/txt/1010.txt'
p999
sg10
g5
sg12
g30
sg31
g188
sba(i__main__
inode
p1000
(dp1001
g3
S'Mason , Janice L (GOV) [/O=SOA/OU=FIRST ADMINISTRATIVE -- Luggage'
p1002
sg5
g6
sg7
(lp1003
g949
asg9
S'./sarahs_inbox/parsed/msnbc/txt/10115.txt'
p1004
sg10
g5
sg12
g30
sg31
g62
sba(i__main__
inode
p1005
(dp1006
g3
S'Fagerstrom, Erika (GOV) [/O=SOA/OU=FIRST ADMINISTRATIVE -- Flights'
p1007
sg5
g6
sg7
(lp1008
g949
asg9
S'./sarahs_inbox/parsed/msnbc/txt/1016.txt'
p1009
sg10
g5
sg12
g30
sg31
g128
sba(i__main__
inode
p1010
(dp1011
g3
S'Fagerstrom, Erika (GOV) [/O=SOA/OU=FIRST ADMINISTRATIVE -- Dates are TH 3/3 and F 3/4'
p1012
sg5
g6
sg7
(lp1013
g949
asg9
S'./sarahs_inbox/parsed/msnbc/txt/1017.txt'
p1014
sg10
g5
sg12
g30
sg31
g146
sba(i__main__
inode
p1015
(dp1016
g3
S'Perry, Kristina Y (GOV) [kris.perry@alaska.gov] -- Re Philadelphia'
p1017
sg5
g6
sg7
(lp1018
g949
asg9
S'./sarahs_inbox/parsed/msnbc/txt/1018.txt'
p1019
sg10
g5
sg12
g30
sg31
g709
sbasg31
S'Topic: 12'
p1020
sba(i__main__
inode
p1021
(dp1022
g3
S'yahoo, gov, ivy, com, sarah, frye, palin, unknown, office, state'
p1023
sg5
g6
sg7
(lp1024
g14
asg9
g4
sg10
g23
sg12
(lp1025
(i__main__
inode
p1026
(dp1027
g3
S'fek9wnr@yahoo.com -- Re Call'
p1028
sg5
g6
sg7
(lp1029
g1021
asg9
S'./sarahs_inbox/parsed/msnbc/txt/1007.txt'
p1030
sg10
g5
sg12
g30
sg31
g989
sba(i__main__
inode
p1031
(dp1032
g3
S" -- Rep. Olson's Spouse not attending"
p1033
sg5
g6
sg7
(lp1034
g1021
asg9
S'./sarahs_inbox/parsed/msnbc/txt/1008.txt'
p1035
sg10
g5
sg12
g30
sg31
g941
sba(i__main__
inode
p1036
(dp1037
g3
S'gov.sarah @yahoo.com -- CSI Alaska'
p1038
sg5
g6
sg7
(lp1039
g1021
asg9
S'./sarahs_inbox/parsed/msnbc/txt/10125.txt'
p1040
sg10
g5
sg12
g30
sg31
g530
sba(i__main__
inode
p1041
(dp1042
g3
S'gov.sarah@yahoo.com -- Re Thinking out loud'
p1043
sg5
g6
sg7
(lp1044
g1021
asg9
S'./sarahs_inbox/parsed/msnbc/txt/10128.txt'
p1045
sg10
g5
sg12
g30
sg31
g236
sba(i__main__
inode
p1046
(dp1047
g3
S'frank bailey [ftb907@yahoo.com] -- Le Ear'
p1048
sg5
g6
sg7
(lp1049
g1021
asg9
S'./sarahs_inbox/parsed/msnbc/txt/;1013.txt'
p1050
sg10
g5
sg12
g30
sg31
S';1013.txt'
p1051
sba(i__main__
inode
p1052
(dp1053
g3
S'gov.sarah@yahoo.com -- Re Present from paulette'
p1054
sg5
g6
sg7
(lp1055
g1021
asg9
S'./sarahs_inbox/parsed/msnbc/txt/10136.txt'
p1056
sg10
g5
sg12
g30
sg31
g265
sba(i__main__
inode
p1057
(dp1058
g3
S'Frye, Ivy J (DOA) [/O=SOA/OU=FIRST ADMINISTRATIVE -- Present from paulette'
p1059
sg5
g6
sg7
(lp1060
g1021
asg9
S'./sarahs_inbox/parsed/msnbc/txt/10138.txt'
p1061
sg10
g5
sg12
g30
sg31
g80
sba(i__main__
inode
p1062
(dp1063
g3
S'Frye, Ivy J (DOA) [/O=SOA/OU=FIRST ADMINISTRATIVE -- Fw Psea ads'
p1064
sg5
g6
sg7
(lp1065
g1021
asg9
S'./sarahs_inbox/parsed/msnbc/txt/1014.txt'
p1066
sg10
g5
sg12
g30
sg31
g92
sba(i__main__
inode
p1067
(dp1068
g3
S'Frye, Ivy J (DOA) [/O=SOA/OU=FIRST ADMINISTRATIVE GROUP/CN=RECIPIENTS/CN=IJFRYEI -- FW empire'
p1069
sg5
g6
sg7
(lp1070
g1021
asg9
S'./sarahs_inbox/parsed/msnbc/txt/1015.txt'
p1071
sg10
g5
sg12
g30
sg31
g110
sba(i__main__
inode
p1072
(dp1073
g3
S'Sarah Palin [ gov.sarah @yahoo.com] -- Re Happy Thanksgiving!'
p1074
sg5
g6
sg7
(lp1075
g1021
asg9
S'./sarahs_inbox/parsed/msnbc/txt/10159.txt'
p1076
sg10
g5
sg12
g30
sg31
g317
sba(i__main__
inode
p1077
(dp1078
g3
S'Frye, Ivy J (DOA) [/O=SOA/OU=FIRST ADMINISTRATIVE -- Car trouble'
p1079
sg5
g6
sg7
(lp1080
g1021
asg9
S'./sarahs_inbox/parsed/msnbc/txt/10162.txt'
p1081
sg10
g5
sg12
g30
sg31
g134
sba(i__main__
inode
p1082
(dp1083
g3
S'Frye, Ivy J (DOA) [/O=SOA/OU=FIRST ADMINISTRATIVE -- Re Happy Thanksgiving!'
p1084
sg5
g6
sg7
(lp1085
g1021
asg9
S'./sarahs_inbox/parsed/msnbc/txt/10164.txt'
p1086
sg10
g5
sg12
g30
sg31
g140
sba(i__main__
inode
p1087
(dp1088
g3
S'Fagerstrom, Erika (GOV) [/O=SOA/OU=FIRST ADMINISTRATIVE -- Dates are TH 3/3 and F 3/4'
p1089
sg5
g6
sg7
(lp1090
g1021
asg9
S'./sarahs_inbox/parsed/msnbc/txt/1017.txt'
p1091
sg10
g5
sg12
g30
sg31
g146
sba(i__main__
inode
p1092
(dp1093
g3
S"Palin, Sarah (GOV sponsored ) [govpalin@alaska.gov] -- Re Murph O'brien"
p1094
sg5
g6
sg7
(lp1095
g1021
asg9
S'./sarahs_inbox/parsed/msnbc/txt/10170.txt'
p1096
sg10
g5
sg12
g30
sg31
g879
sbasg31
S'Topic: 13'
p1097
sba(i__main__
inode
p1098
(dp1099
g3
S'law, talis, state, court, email, attorney, page, governor, palin, question'
p1100
sg5
g6
sg7
(lp1101
g14
asg9
g4
sg10
g23
sg12
(lp1102
(i__main__
inode
p1103
(dp1104
g3
S'Frye, Ivy J (DOA) [/O=SOA/OU=FIRST ADMINISTRATIVE -- Fw Cell phone reimbursement'
p1105
sg5
g6
sg7
(lp1106
g1098
asg9
S'./sarahs_inbox/parsed/msnbc/txt/1001.txt'
p1107
sg10
g5
sg12
g30
sg31
g170
sba(i__main__
inode
p1108
(dp1109
g3
S'gov.sarah@yahoo.com -- Re Preparation and roll-out related to filing of lawsuit against Mercer'
p1110
sg5
g6
sg7
(lp1111
g1098
asg9
S'./sarahs_inbox/parsed/msnbc/txt/10112.txt'
p1112
sg10
g5
sg12
g30
sg31
g417
sba(i__main__
inode
p1113
(dp1114
g3
S'Sarah Palin [gov.sarah@yahoo.com] -- Re AK Right to Life Remarks'
p1115
sg5
g6
sg7
(lp1116
g1098
asg9
S'./sarahs_inbox/parsed/msnbc/txt/10120.txt'
p1117
sg10
g5
sg12
g30
sg31
g524
sba(i__main__
inode
p1118
(dp1119
g3
S"Leschper, Beth (GOV) [beth.leschper@alaska.gov] -- Governor's Budget Priorities Web Survey"
p1120
sg5
g6
sg7
(lp1121
g1098
asg9
S'./sarahs_inbox/parsed/msnbc/txt/10121.txt'
p1122
sg10
g5
sg12
g30
sg31
S'10121.txt'
p1123
sba(i__main__
inode
p1124
(dp1125
g3
S'gov.sarah@yahoo.com -- Re Welcome to WOW! - News'
p1126
sg5
g6
sg7
(lp1127
g1098
asg9
S'./sarahs_inbox/parsed/msnbc/txt/10122.txt'
p1128
sg10
g5
sg12
g30
sg31
g830
sba(i__main__
inode
p1129
(dp1130
g3
S'Colberg, Talis J (LAW) [/O=SOA/OU=FIRST ADMINISTRATIVE -- Re Welcome to WOW! - News'
p1131
sg5
g6
sg7
(lp1132
g1098
asg9
S'./sarahs_inbox/parsed/msnbc/txt/10123.txt'
p1133
sg10
g5
sg12
g30
sg31
g836
sba(i__main__
inode
p1134
(dp1135
g3
S'gov.sarah @yahoo.com -- Fw Welcome to WOW! - News'
p1136
sg5
g6
sg7
(lp1137
g1098
asg9
S'./sarahs_inbox/parsed/msnbc/txt/10124.txt'
p1138
sg10
g5
sg12
g30
sg31
g842
sba(i__main__
inode
p1139
(dp1140
g3
S'gov.sarah@yahoo.com -- Re Welcome to WOW! - News'
p1141
sg5
g6
sg7
(lp1142
g1098
asg9
S'./sarahs_inbox/parsed/msnbc/txt/10133.txt'
p1143
sg10
g5
sg12
g30
sg31
g561
sba(i__main__
inode
p1144
(dp1145
g3
S'Colberg , Talis J (LAW) [/O=SOA/OU=FIRST ADMINISTRATIVE -- Re Welcome to WOW! - News'
p1146
sg5
g6
sg7
(lp1147
g1098
asg9
S'./sarahs_inbox/parsed/msnbc/txt/10134.txt'
p1148
sg10
g5
sg12
g30
sg31
g567
sba(i__main__
inode
p1149
(dp1150
g3
S'Colberg , Talis J (LAW) [/O=SOA/OU=FIRST ADMINISTRATIVE -- Re Welcome to WOW! - News'
p1151
sg5
g6
sg7
(lp1152
g1098
asg9
S'./sarahs_inbox/parsed/msnbc/txt/10135.txt'
p1153
sg10
g5
sg12
g30
sg31
g573
sba(i__main__
inode
p1154
(dp1155
g3
S'PARNELL, S (GOV sponsored) [/O=SOA/OU=FIRST ADMINISTRATIVE -- Kenai River Regs'
p1156
sg5
g6
sg7
(lp1157
g1098
asg9
S'./sarahs_inbox/parsed/msnbc/txt/10141.txt'
p1158
sg10
g5
sg12
g30
sg31
S'10141.txt'
p1159
sba(i__main__
inode
p1160
(dp1161
g3
S'Morgan, Katryn L (GOV) [/O=SOA/OU=FIRST ADMINISTRATIVE -- AK Right to Life Remarks'
p1162
sg5
g6
sg7
(lp1163
g1098
asg9
S'./sarahs_inbox/parsed/msnbc/txt/10151.txt'
p1164
sg10
g5
sg12
g30
sg31
g116
sba(i__main__
inode
p1165
(dp1166
g3
S'gov.sarah@yahoo.com -- Re AK Right to Life Remarks'
p1167
sg5
g6
sg7
(lp1168
g1098
asg9
S'./sarahs_inbox/parsed/msnbc/txt/10154.txt'
p1169
sg10
g5
sg12
g30
sg31
g624
sba(i__main__
inode
p1170
(dp1171
g3
S'Colberg, Tails J (LAW) [/O=SOA/OU=FIRST ADMINISTRATIVE -- Today.'
p1172
sg5
g6
sg7
(lp1173
g1098
asg9
S'./sarahs_inbox/parsed/msnbc/txt/10155.txt'
p1174
sg10
g5
sg12
g30
sg31
g122
sba(i__main__
inode
p1175
(dp1176
g3
S'gov.sarah@yahoo.com -- Re Ethics training lacks a final test'
p1177
sg5
g6
sg7
(lp1178
g1098
asg9
S'./sarahs_inbox/parsed/msnbc/txt/10161.txt'
p1179
sg10
g5
sg12
g30
sg31
S'10161.txt'
p1180
sba(i__main__
inode
p1181
(dp1182
g3
S'Kreitzer, Annette E (DOA) [/O=SOA/OU=FIRST ADMINISTRATIVE -- FW Ethics training lacks a final test'
p1183
sg5
g6
sg7
(lp1184
g1098
asg9
S'./sarahs_inbox/parsed/msnbc/txt/10165.txt'
p1185
sg10
g5
sg12
g30
sg31
S'10165.txt'
p1186
sba(i__main__
inode
p1187
(dp1188
g3
S'gov.sarah@yahoo.com -- Re AK Right to Life Remarks'
p1189
sg5
g6
sg7
(lp1190
g1098
asg9
S'./sarahs_inbox/parsed/msnbc/txt/10182.txt'
p1191
sg10
g5
sg12
g30
sg31
g725
sbasg31
S'Topic: 14'
p1192
sba(i__main__
inode
p1193
(dp1194
g3
S'state, alaska, year, public, land, would, department, area, people, trooper'
p1195
sg5
g6
sg7
(lp1196
g14
asg9
g4
sg10
g23
sg12
(lp1197
(i__main__
inode
p1198
(dp1199
g3
S'Frye, Ivy J (DOA) [/O=SOA/OU=FIRST ADMINISTRATIVE -- Re Fwd Support PR Campaign from Trooper President'
p1200
sg5
g6
sg7
(lp1201
g1193
asg9
S'./sarahs_inbox/parsed/msnbc/txt/1011.txt'
p1202
sg10
g5
sg12
g30
sg31
g194
sba(i__main__
inode
p1203
(dp1204
g3
S'Palin, Sarah (GOV sponsored) [govpalinalaska.gov] -- Re FYI'
p1205
sg5
g6
sg7
(lp1206
g1193
asg9
S'./sarahs_inbox/parsed/msnbc/txt/10111.txt'
p1207
sg10
g5
sg12
g30
sg31
g891
sba(i__main__
inode
p1208
(dp1209
g3
S'Mason , Janice L (GOV) [/O=SOA/OU=FIRST ADMINISTRATIVE -- Luggage'
p1210
sg5
g6
sg7
(lp1211
g1193
asg9
S'./sarahs_inbox/parsed/msnbc/txt/10119.txt'
p1212
sg10
g5
sg12
g30
sg31
g176
sba(i__main__
inode
p1213
(dp1214
g3
S'ftb907@yahoo.com -- Re Fwd Support PR Campaign from Trooper President'
p1215
sg5
g6
sg7
(lp1216
g1193
asg9
S'./sarahs_inbox/parsed/msnbc/txt/1012.txt'
p1217
sg10
g5
sg12
g30
sg31
g224
sba(i__main__
inode
p1218
(dp1219
g3
S'gov.sarah @yahoo.com -- CSI Alaska'
p1220
sg5
g6
sg7
(lp1221
g1193
asg9
S'./sarahs_inbox/parsed/msnbc/txt/10125.txt'
p1222
sg10
g5
sg12
g30
sg31
g530
sba(i__main__
inode
p1223
(dp1224
g3
S'Governor Sarah Palin (GOV sponsored) [govemor@alaska.gov] -- RE Other'
p1225
sg5
g6
sg7
(lp1226
g1193
asg9
S'./sarahs_inbox/parsed/msnbc/txt/10126.txt'
p1227
sg10
g5
sg12
g30
sg31
g423
sba(i__main__
inode
p1228
(dp1229
g3
S'PARNELL, S (GOV sponsored) [/O=SOA/OU=FIRST ADMINISTRATIVE -- Kenai River Regs'
p1230
sg5
g6
sg7
(lp1231
g1193
asg9
S'./sarahs_inbox/parsed/msnbc/txt/10141.txt'
p1232
sg10
g5
sg12
g30
sg31
g1159
sba(i__main__
inode
p1233
(dp1234
g3
S'Von Scheben, Leo (DOT) [/O=SOA/OU=FIRST ADMINISTRATIVE -- FW Aleknagik'
p1235
sg5
g6
sg7
(lp1236
g1193
asg9
S'./sarahs_inbox/parsed/msnbc/txt/10150.txt'
p1237
sg10
g5
sg12
g30
sg31
S'10150.txt'
p1238
sba(i__main__
inode
p1239
(dp1240
g3
S'gov.sarah@yahoo.com -- Re Bridge DOT bond'
p1241
sg5
g6
sg7
(lp1242
g1193
asg9
S'./sarahs_inbox/parsed/msnbc/txt/10163.txt'
p1243
sg10
g5
sg12
g30
sg31
g640
sbasg31
S'Topic: 15'
p1244
sba(i__main__
inode
p1245
(dp1246
g3
S'gov, alaska, nizich, talis, mike, colberg, michael, john, sean, sponsored'
p1247
sg5
g6
sg7
(lp1248
g14
asg9
g4
sg10
g23
sg12
(lp1249
(i__main__
inode
p1250
(dp1251
g3
S"Leschper, Beth (GOV) [beth.leschper@alaska.gov] -- Governor's Budget Priorities Web Survey"
p1252
sg5
g6
sg7
(lp1253
g1245
asg9
S'./sarahs_inbox/parsed/msnbc/txt/10121.txt'
p1254
sg10
g5
sg12
g30
sg31
g1123
sba(i__main__
inode
p1255
(dp1256
g3
S'PARNELL, S (GOV sponsored) [/O=SOA/OU=FIRST ADMINISTRATIVE -- Thinking out loud'
p1257
sg5
g6
sg7
(lp1258
g1245
asg9
S'./sarahs_inbox/parsed/msnbc/txt/10129.txt'
p1259
sg10
g5
sg12
g30
sg31
g74
sba(i__main__
inode
p1260
(dp1261
g3
S'Jackson, Karleen K (HSS) [karleen.jackson@aiaska.gov] -- RE Governors Budget Priorities Web Survey'
p1262
sg5
g6
sg7
(lp1263
g1245
asg9
S'./sarahs_inbox/parsed/msnbc/txt/;10147.txt'
p1264
sg10
g5
sg12
g30
sg31
g873
sba(i__main__
inode
p1265
(dp1266
g3
S"Lloyd, Denby S (DFG) [/O=SOA/OU=FIRST ADMINISTRATIVE -- RE Governor's Budget Priorities Web Survey"
p1267
sg5
g6
sg7
(lp1268
g1245
asg9
S'./sarahs_inbox/parsed/msnbc/txt/10153.txt'
p1269
sg10
g5
sg12
g30
sg31
S'10153.txt'
p1270
sba(i__main__
inode
p1271
(dp1272
g3
S'gov.sarah@yahoo.com -- Re Scheduling'
p1273
sg5
g6
sg7
(lp1274
g1245
asg9
S'./sarahs_inbox/parsed/msnbc/txt/10171.txt'
p1275
sg10
g5
sg12
g30
sg31
g471
sbasg31
S'Topic: 16'
p1276
sba(i__main__
inode
p1277
(dp1278
g3
S'alaska, school, state, program, education, student, www, information, year, award'
p1279
sg5
g6
sg7
(lp1280
g14
asg9
g4
sg10
g23
sg12
(lp1281
(i__main__
inode
p1282
(dp1283
g3
S'Bailey, Frank T (GOV) [/O=SOA/OU=FIRST ADMINISTRATIVE -- FW Correction PR 08-044a Governor Palin Appoints to Suicide Prevention Council 032708'
p1284
sg5
g6
sg7
(lp1285
g1277
asg9
S'./sarahs_inbox/parsed/msnbc/txt/1009.txt'
p1286
sg10
g5
sg12
g30
sg31
S'1009.txt'
p1287
sba(i__main__
inode
p1288
(dp1289
g3
S'Mason , Janice L (GOV) [/O=SOA/OU=FIRST ADMINISTRATIVE -- RE Military_and_VeteransAffairs'
p1290
sg5
g6
sg7
(lp1291
g1277
asg9
S'./sarahs_inbox/parsed/msnbc/txt/10114.txt'
p1292
sg10
g5
sg12
g30
sg31
g206
sba(i__main__
inode
p1293
(dp1294
g3
S"Leschper, Beth (GOV) [beth.leschper@alaska.gov] -- Governor's Budget Priorities Web Survey"
p1295
sg5
g6
sg7
(lp1296
g1277
asg9
S'./sarahs_inbox/parsed/msnbc/txt/10121.txt'
p1297
sg10
g5
sg12
g30
sg31
g1123
sba(i__main__
inode
p1298
(dp1299
g3
S'gov. sarah@yahoo.com -- Re Telephone Calls - Drop Out Students'
p1300
sg5
g6
sg7
(lp1301
g1277
asg9
S'./sarahs_inbox/parsed/msnbc/txt/10132.txt'
p1302
sg10
g5
sg12
g30
sg31
g259
sba(i__main__
inode
p1303
(dp1304
g3
S'Mason, Janice L (GOV) [/O=SOA/OU=FIRST ADMINISTRATIVE -- Telephone Calls - Drop Out Students'
p1305
sg5
g6
sg7
(lp1306
g1277
asg9
S'./sarahs_inbox/parsed/msnbc/txt/10142.txt'
p1307
sg10
g5
sg12
g30
sg31
g104
sba(i__main__
inode
p1308
(dp1309
g3
S'Leschper, Beth (GOV) [beth.leschper@alaska.gov] -- updated talking points'
p1310
sg5
g6
sg7
(lp1311
g1277
asg9
S'./sarahs_inbox/parsed/msnbc/txt/10146.txt'
p1312
sg10
g5
sg12
g30
sg31
g776
sba(i__main__
inode
p1313
(dp1314
g3
S'Jackson, Karleen K (HSS) [karleen.jackson@aiaska.gov] -- RE Governors Budget Priorities Web Survey'
p1315
sg5
g6
sg7
(lp1316
g1277
asg9
S'./sarahs_inbox/parsed/msnbc/txt/;10147.txt'
p1317
sg10
g5
sg12
g30
sg31
g873
sba(i__main__
inode
p1318
(dp1319
g3
S'Governor Sarah Palin (GOV sponsored) [governor@ alaska.gov] -- Voices Across Alaska State Budget Priorities'
p1320
sg5
g6
sg7
(lp1321
g1277
asg9
S'./sarahs_inbox/parsed/msnbc/txt/10148.txt'
p1322
sg10
g5
sg12
g30
sg31
g782
sba(i__main__
inode
p1323
(dp1324
g3
S'gov.sarah@yahoo.com -- Re Ethics training lacks a final test'
p1325
sg5
g6
sg7
(lp1326
g1277
asg9
S'./sarahs_inbox/parsed/msnbc/txt/10161.txt'
p1327
sg10
g5
sg12
g30
sg31
g1180
sba(i__main__
inode
p1328
(dp1329
g3
S'Kreitzer, Annette E (DOA) [/O=SOA/OU=FIRST ADMINISTRATIVE -- FW Ethics training lacks a final test'
p1330
sg5
g6
sg7
(lp1331
g1277
asg9
S'./sarahs_inbox/parsed/msnbc/txt/10165.txt'
p1332
sg10
g5
sg12
g30
sg31
g1186
sba(i__main__
inode
p1333
(dp1334
g3
S'Kris Norosz [KrisN@Icic[eSeafoods.com] -- Support for the UAF "fisheries" line item'
p1335
sg5
g6
sg7
(lp1336
g1277
asg9
S'./sarahs_inbox/parsed/msnbc/txt/10166.txt'
p1337
sg10
g5
sg12
g30
sg31
g912
sba(i__main__
inode
p1338
(dp1339
g3
S'Rehfeld, Karen J (GOV) [/O=SOA/OU=FIRST ADMINISTRATIVE -- RE Support for the UAF "fisheries" line item'
p1340
sg5
g6
sg7
(lp1341
g1277
asg9
S'./sarahs_inbox/parsed/msnbc/txt/10188.txt'
p1342
sg10
g5
sg12
g30
sg31
g918
sba(i__main__
inode
p1343
(dp1344
g3
S'Rehfeld, Karen J (GOV) [/O=SOA/OU=FIRST ADMINISTRATIVE -- RE Univ. of Alaska Funding - Fisheries'
p1345
sg5
g6
sg7
(lp1346
g1277
asg9
S'./sarahs_inbox/parsed/msnbc/txt/10189.txt'
p1347
sg10
g5
sg12
g30
sg31
g924
sbasg31
S'Topic: 17'
p1348
sba(i__main__
inode
p1349
(dp1350
g3
S'org, email, gov, alaskadc, john, address, state, jwkatz, katz, tibbles'
p1351
sg5
g6
sg7
(lp1352
g14
asg9
g4
sg10
g23
sg12
(lp1353
(i__main__
inode
p1354
(dp1355
g3
S'John Katz jwkatz ALASKADC.org] -- Federal Funding/State Budget'
p1356
sg5
g6
sg7
(lp1357
g1349
asg9
S'./sarahs_inbox/parsed/msnbc/txt/10144.txt'
p1358
sg10
g5
sg12
g30
sg31
g293
sba(i__main__
inode
p1359
(dp1360
g3
S'gov.sarah@yahoo.com -- Fw AEA tomorrow'
p1361
sg5
g6
sg7
(lp1362
g1349
asg9
S'./sarahs_inbox/parsed/msnbc/txt/10187.txt'
p1363
sg10
g5
sg12
g30
sg31
g736
sbasg31
S'Topic: 18'
p1364
sba(i__main__
inode
p1365
(dp1366
g3
S'business, waste, million, company, market, energy, page, new, climate, change'
p1367
sg5
g6
sg7
(lp1368
g14
asg9
g4
sg10
g23
sg12
(lp1369
(i__main__
inode
p1370
(dp1371
g3
S'Von Scheben, Leo (DOT) [/O=SOA/OU=FIRST ADMINISTRATIVE -- FW Aleknagik'
p1372
sg5
g6
sg7
(lp1373
g1365
asg9
S'./sarahs_inbox/parsed/msnbc/txt/10150.txt'
p1374
sg10
g5
sg12
g30
sg31
g1238
sba(i__main__
inode
p1375
(dp1376
g3
S'Leschper, Beth (GOV) [beth.Ieschper@alaska.gov] -- Remarks for AEA Railbelt Conf'
p1377
sg5
g6
sg7
(lp1378
g1365
asg9
S'./sarahs_inbox/parsed/msnbc/txt/10157.txt'
p1379
sg10
g5
sg12
g30
sg31
S'10157.txt'
p1380
sbasg31
S'Topic: 19'
p1381
sba(i__main__
inode
p1382
(dp1383
g3
S'issue, pra, one, know, sent, call, asked, said, need, letter'
p1384
sg5
g6
sg7
(lp1385
g14
asg9
g4
sg10
g23
sg12
(lp1386
(i__main__
inode
p1387
(dp1388
g3
S'Frye, Ivy J (DOA) [/O=SOA/OU=FIRST ADMINISTRATIVE -- Fw Psea ads'
p1389
sg5
g6
sg7
(lp1390
g1382
asg9
S'./sarahs_inbox/parsed/msnbc/txt/1014.txt'
p1391
sg10
g5
sg12
g30
sg31
g92
sba(i__main__
inode
p1392
(dp1393
g3
S'Frye, Ivy J (DOA) [/O=SOA/OU=FIRST ADMINISTRATIVE GROUP/CN=RECIPIENTS/CN=IJFRYEI -- FW empire'
p1394
sg5
g6
sg7
(lp1395
g1382
asg9
S'./sarahs_inbox/parsed/msnbc/txt/1015.txt'
p1396
sg10
g5
sg12
g30
sg31
g110
sba(i__main__
inode
p1397
(dp1398
g3
S'gov.sarah@yahoo.com -- Re Ethics training lacks a final test'
p1399
sg5
g6
sg7
(lp1400
g1382
asg9
S'./sarahs_inbox/parsed/msnbc/txt/10161.txt'
p1401
sg10
g5
sg12
g30
sg31
g1180
sba(i__main__
inode
p1402
(dp1403
g3
S'Kreitzer, Annette E (DOA) [/O=SOA/OU=FIRST ADMINISTRATIVE -- FW Ethics training lacks a final test'
p1404
sg5
g6
sg7
(lp1405
g1382
asg9
S'./sarahs_inbox/parsed/msnbc/txt/10165.txt'
p1406
sg10
g5
sg12
g30
sg31
g1186
sba(i__main__
inode
p1407
(dp1408
g3
S'gov.sarah@yahoo.com -- Ktuu'
p1409
sg5
g6
sg7
(lp1410
g1382
asg9
S'./sarahs_inbox/parsed/msnbc/txt/10167.txt'
p1411
sg10
g5
sg12
g30
sg31
g646
sba(i__main__
inode
p1412
(dp1413
g3
S'PARNELL, S (GOV sponsored) [/O=SOA/OU=FIRST ADMINISTRATIVE -- Re Fagan'
p1414
sg5
g6
sg7
(lp1415
g1382
asg9
S'./sarahs_inbox/parsed/msnbc/txt/10172.txt'
p1416
sg10
g5
sg12
g30
sg31
g345
sba(i__main__
inode
p1417
(dp1418
g3
S'gov.sarah @yahoo.com -- Re Fagan'
p1419
sg5
g6
sg7
(lp1420
g1382
asg9
S'./sarahs_inbox/parsed/msnbc/txt/10173.txt'
p1421
sg10
g5
sg12
g30
sg31
g351
sba(i__main__
inode
p1422
(dp1423
g3
S'PARNELL, S (GOV sponsored) [/O=SOA/OU=FIRST ADMINISTRATIVE -- Re Fagan'
p1424
sg5
g6
sg7
(lp1425
g1382
asg9
S'./sarahs_inbox/parsed/msnbc/txt/10174.txt'
p1426
sg10
g5
sg12
g30
sg31
g357
sba(i__main__
inode
p1427
(dp1428
g3
S'gov.sarah@yahoo.com -- Re Fagan'
p1429
sg5
g6
sg7
(lp1430
g1382
asg9
S'./sarahs_inbox/parsed/msnbc/txt/10175.txt'
p1431
sg10
g5
sg12
g30
sg31
g363
sba(i__main__
inode
p1432
(dp1433
g3
S'PARNELL, S (GOV sponsored) [/O=SOA/OU=FIRST ADMINISTRATIVE -- Re Fagan'
p1434
sg5
g6
sg7
(lp1435
g1382
asg9
S'./sarahs_inbox/parsed/msnbc/txt/10176.txt'
p1436
sg10
g5
sg12
g30
sg31
g152
sba(i__main__
inode
p1437
(dp1438
g3
S'gov.sarah@yahoo.com -- Fagan'
p1439
sg5
g6
sg7
(lp1440
g1382
asg9
S'./sarahs_inbox/parsed/msnbc/txt/10177.txt'
p1441
sg10
g5
sg12
g30
sg31
g692
sba(i__main__
inode
p1442
(dp1443
g3
S'gov.sarah@yahoo.com -- Re Conoco'
p1444
sg5
g6
sg7
(lp1445
g1382
asg9
S'./sarahs_inbox/parsed/msnbc/txt/10183.txt'
p1446
sg10
g5
sg12
g30
sg31
g375
sba(i__main__
inode
p1447
(dp1448
g3
S'Frye, Ivy J (DOA) [/O=SOA/OU=FIRST ADMINISTRATIVE -- Fw Conoco'
p1449
sg5
g6
sg7
(lp1450
g1382
asg9
S'./sarahs_inbox/parsed/msnbc/txt/10186.txt'
p1451
sg10
g5
sg12
g30
sg31
g393
sba(i__main__
inode
p1452
(dp1453
g3
S'gov.sarah@yahoo.com -- Fw AEA tomorrow'
p1454
sg5
g6
sg7
(lp1455
g1382
asg9
S'./sarahs_inbox/parsed/msnbc/txt/10187.txt'
p1456
sg10
g5
sg12
g30
sg31
g736
sbasg31
S'Topic: 20'
p1457
sba(i__main__
inode
p1458
(dp1459
g3
S'governor, palin, message, alaska, address, sarah, thank, gov, mail, sent'
p1460
sg5
g6
sg7
(lp1461
g14
asg9
g4
sg10
g23
sg12
(lp1462
(i__main__
inode
p1463
(dp1464
g3
S"Governor Sarah Palin (GOV sponsored) [governor@alaska.govj -- FW George Brown's granddaughter"
p1465
sg5
g6
sg7
(lp1466
g1458
asg9
S'./sarahs_inbox/parsed/msnbc/txt/10110.txt'
p1467
sg10
g5
sg12
g30
sg31
g200
sba(i__main__
inode
p1468
(dp1469
g3
S'Mason , Janice L (GOV) I/O=SOA/OU=FIRST ADMINISTRATIVE -- RE Military_and Veterans_Affairs'
p1470
sg5
g6
sg7
(lp1471
g1458
asg9
S'./sarahs_inbox/parsed/msnbc/txt/10113.txt'
p1472
sg10
g5
sg12
g30
sg31
g56
sba(i__main__
inode
p1473
(dp1474
g3
S'Governor Sarah Palin (GOV sponsored) [govemor@alaska.gov] -- RE Other'
p1475
sg5
g6
sg7
(lp1476
g1458
asg9
S'./sarahs_inbox/parsed/msnbc/txt/10126.txt'
p1477
sg10
g5
sg12
g30
sg31
g423
sba(i__main__
inode
p1478
(dp1479
g3
S'Governor Sarah Palin (GOV sponsored) [govemor@alaska.gov] -- RE Health-Care'
p1480
sg5
g6
sg7
(lp1481
g1458
asg9
S'./sarahs_inbox/parsed/msnbc/txt/10149.txt'
p1482
sg10
g5
sg12
g30
sg31
g305
sba(i__main__
inode
p1483
(dp1484
g3
S"Lloyd, Denby S (DFG) [/O=SOA/OU=FIRST ADMINISTRATIVE -- RE Governor's Budget Priorities Web Survey"
p1485
sg5
g6
sg7
(lp1486
g1458
asg9
S'./sarahs_inbox/parsed/msnbc/txt/10153.txt'
p1487
sg10
g5
sg12
g30
sg31
g1270
sba(i__main__
inode
p1488
(dp1489
g3
S'gov.sarah@yahoo.com -- Re AK Right to Life Remarks'
p1490
sg5
g6
sg7
(lp1491
g1458
asg9
S'./sarahs_inbox/parsed/msnbc/txt/10154.txt'
p1492
sg10
g5
sg12
g30
sg31
g624
sba(i__main__
inode
p1493
(dp1494
g3
S'Governor Sarah Palin (GOV sponsored) [governor@alaska.gov] -- RE Military_and_Veterans_Affairs'
p1495
sg5
g6
sg7
(lp1496
g1458
asg9
S'./sarahs_inbox/parsed/msnbc/txt/10158.txt'
p1497
sg10
g5
sg12
g30
sg31
g405
sba(i__main__
inode
p1498
(dp1499
g3
S'Sarah Palin [ gov.sarah @yahoo.com] -- Re Happy Thanksgiving!'
p1500
sg5
g6
sg7
(lp1501
g1458
asg9
S'./sarahs_inbox/parsed/msnbc/txt/10159.txt'
p1502
sg10
g5
sg12
g30
sg31
g317
sba(i__main__
inode
p1503
(dp1504
g3
S'gov.sarah@yahoo.com -- Re AK Right to Life Remarks'
p1505
sg5
g6
sg7
(lp1506
g1458
asg9
S'./sarahs_inbox/parsed/msnbc/txt/10182.txt'
p1507
sg10
g5
sg12
g30
sg31
g725
sba(i__main__
inode
p1508
(dp1509
g3
S'Governor Sarah Palin (GOV sponsored) [governor@alaska.gov] -- RE Health-Care'
p1510
sg5
g6
sg7
(lp1511
g1458
asg9
S'./sarahs_inbox/parsed/msnbc/txt/10184.txt'
p1512
sg10
g5
sg12
g30
sg31
g381
sbasg31
S'Topic: 21'
p1513
sba(i__main__
inode
p1514
(dp1515
g3
S'alaska, fish, game, fishery, state, subsistence, board, hunting, fishing, food'
p1516
sg5
g6
sg7
(lp1517
g14
asg9
g4
sg10
g23
sg12
(lp1518
(i__main__
inode
p1519
(dp1520
g3
S'Bailey, Frank T (GOV) [/O=SOA/OU=FIRST ADMINISTRATIVE -- FW Correction PR 08-044a Governor Palin Appoints to Suicide Prevention Council 032708'
p1521
sg5
g6
sg7
(lp1522
g1514
asg9
S'./sarahs_inbox/parsed/msnbc/txt/1009.txt'
p1523
sg10
g5
sg12
g30
sg31
g1287
sba(i__main__
inode
p1524
(dp1525
g3
S"Fagerstrom, Erika (GOV) [erika.fagerstrom@alaska.gov] -- Final RSVP List- Spouses' Luncheon 1200-130pm."
p1526
sg5
g6
sg7
(lp1527
g1514
asg9
S'./sarahs_inbox/parsed/msnbc/txt/1010.txt'
p1528
sg10
g5
sg12
g30
sg31
g188
sba(i__main__
inode
p1529
(dp1530
g3
S'Kris Norosz [KrisN@Icic[eSeafoods.com] -- Support for the UAF "fisheries" line item'
p1531
sg5
g6
sg7
(lp1532
g1514
asg9
S'./sarahs_inbox/parsed/msnbc/txt/10166.txt'
p1533
sg10
g5
sg12
g30
sg31
g912
sbasg31
S'Topic: 22'
p1534
sba(i__main__
inode
p1535
(dp1536
g3
S'state, alaska, cost, bill, governor, chamber, session, health, benefit, member'
p1537
sg5
g6
sg7
(lp1538
g14
asg9
g4
sg10
g23
sg12
(lp1539
(i__main__
inode
p1540
(dp1541
g3
S'Frye, Ivy J (DOA) [/O=SOA/OU=FIRST ADMINISTRATIVE -- Re Fwd Support PR Campaign from Trooper President'
p1542
sg5
g6
sg7
(lp1543
g1535
asg9
S'./sarahs_inbox/parsed/msnbc/txt/1011.txt'
p1544
sg10
g5
sg12
g30
sg31
g194
sba(i__main__
inode
p1545
(dp1546
g3
S'PARNELL, S (GOV sponsored) [/O=SOA/OU=FIRST ADMINISTRATIVE -- LG Office Budget'
p1547
sg5
g6
sg7
(lp1548
g1535
asg9
S'./sarahs_inbox/parsed/msnbc/txt/10116.txt'
p1549
sg10
g5
sg12
g30
sg31
g212
sba(i__main__
inode
p1550
(dp1551
g3
S'PARNELL, S (GOV sponsored ) [/O=SOA/OU=FIRST ADMINISTRATIVE -- LG Office Budget'
p1552
sg5
g6
sg7
(lp1553
g1535
asg9
S'./sarahs_inbox/parsed/msnbc/txt/10118.txt'
p1554
sg10
g5
sg12
g30
sg31
g218
sba(i__main__
inode
p1555
(dp1556
g3
S'ftb907@yahoo.com -- Re Fwd Support PR Campaign from Trooper President'
p1557
sg5
g6
sg7
(lp1558
g1535
asg9
S'./sarahs_inbox/parsed/msnbc/txt/1012.txt'
p1559
sg10
g5
sg12
g30
sg31
g224
sba(i__main__
inode
p1560
(dp1561
g3
S'Leschper, Beth (GOV) [beth.leschper@alaska.gov] -- updated talking points'
p1562
sg5
g6
sg7
(lp1563
g1535
asg9
S'./sarahs_inbox/parsed/msnbc/txt/10146.txt'
p1564
sg10
g5
sg12
g30
sg31
g776
sba(i__main__
inode
p1565
(dp1566
g3
S'Governor Sarah Palin (GOV sponsored) [govemor@alaska.gov] -- RE Health-Care'
p1567
sg5
g6
sg7
(lp1568
g1535
asg9
S'./sarahs_inbox/parsed/msnbc/txt/10149.txt'
p1569
sg10
g5
sg12
g30
sg31
g305
sba(i__main__
inode
p1570
(dp1571
g3
S'Frye, Ivy J (DOA) [/O=SOA/OU=FIRST ADMINISTRATIVE GROUP/CN=RECIPIENTS/CN=IJFRYE] -- great letter to the editor from Phil Schneider'
p1572
sg5
g6
sg7
(lp1573
g1535
asg9
S'./sarahs_inbox/parsed/msnbc/txt/10156.txt'
p1574
sg10
g5
sg12
g30
sg31
g788
sba(i__main__
inode
p1575
(dp1576
g3
S'Leschper, Beth (GOV) [beth.Ieschper@alaska.gov] -- Remarks for AEA Railbelt Conf'
p1577
sg5
g6
sg7
(lp1578
g1535
asg9
S'./sarahs_inbox/parsed/msnbc/txt/10157.txt'
p1579
sg10
g5
sg12
g30
sg31
g1380
sba(i__main__
inode
p1580
(dp1581
g3
S'Rehfeld, Karen J (GOV) [/O=SOA/OU=FIRST ADMINISTRATIVE -- RE Support for the UAF "fisheries" line item'
p1582
sg5
g6
sg7
(lp1583
g1535
asg9
S'./sarahs_inbox/parsed/msnbc/txt/10188.txt'
p1584
sg10
g5
sg12
g30
sg31
g918
sba(i__main__
inode
p1585
(dp1586
g3
S'Rehfeld, Karen J (GOV) [/O=SOA/OU=FIRST ADMINISTRATIVE -- RE Univ. of Alaska Funding - Fisheries'
p1587
sg5
g6
sg7
(lp1588
g1535
asg9
S'./sarahs_inbox/parsed/msnbc/txt/10189.txt'
p1589
sg10
g5
sg12
g30
sg31
g924
sbasg31
S'Topic: 23'
p1590
sba(i__main__
inode
p1591
(dp1592
g3
S'board, governor, member, page, alaska, director, council, seat, commission, meeting'
p1593
sg5
g6
sg7
(lp1594
g14
asg9
g4
sg10
g23
sg12
(lp1595
(i__main__
inode
p1596
(dp1597
g3
S'Bailey, Frank T (GOV) [/O=SOA/OU=FIRST ADMINISTRATIVE -- FW Correction PR 08-044a Governor Palin Appoints to Suicide Prevention Council 032708'
p1598
sg5
g6
sg7
(lp1599
g1591
asg9
S'./sarahs_inbox/parsed/msnbc/txt/1009.txt'
p1600
sg10
g5
sg12
g30
sg31
g1287
sba(i__main__
inode
p1601
(dp1602
g3
S'Palin, Sarah (GOV sponsored) [govpalinalaska.gov] -- Re FYI'
p1603
sg5
g6
sg7
(lp1604
g1591
asg9
S'./sarahs_inbox/parsed/msnbc/txt/10111.txt'
p1605
sg10
g5
sg12
g30
sg31
g891
sba(i__main__
inode
p1606
(dp1607
g3
S'PARNELL, S (GOV sponsored) [/O=SOA/OU=FIRST ADMINISTRATIVE -- LG Office Budget'
p1608
sg5
g6
sg7
(lp1609
g1591
asg9
S'./sarahs_inbox/parsed/msnbc/txt/10116.txt'
p1610
sg10
g5
sg12
g30
sg31
g212
sba(i__main__
inode
p1611
(dp1612
g3
S'PARNELL, S (GOV sponsored ) [/O=SOA/OU=FIRST ADMINISTRATIVE -- LG Office Budget'
p1613
sg5
g6
sg7
(lp1614
g1591
asg9
S'./sarahs_inbox/parsed/msnbc/txt/10118.txt'
p1615
sg10
g5
sg12
g30
sg31
g218
sba(i__main__
inode
p1616
(dp1617
g3
S'Mason , Janice L (GOV) [/O=SOA/OU=FIRST ADMINISTRATIVE -- Luggage'
p1618
sg5
g6
sg7
(lp1619
g1591
asg9
S'./sarahs_inbox/parsed/msnbc/txt/10119.txt'
p1620
sg10
g5
sg12
g30
sg31
g176
sba(i__main__
inode
p1621
(dp1622
g3
S'Linda Kovac [Ikovac@chugiakcouncil.org] -- Chugiak Community Council Request re Old Glenn Highway Project'
p1623
sg5
g6
sg7
(lp1624
g1591
asg9
S'./sarahs_inbox/parsed/msnbc/txt/10160.txt'
p1625
sg10
g5
sg12
g30
sg31
g947
sba(i__main__
inode
p1626
(dp1627
g3
S'Perry, Kristina Y (GOV) [kris.perry@alaska.gov] -- Re Philadelphia'
p1628
sg5
g6
sg7
(lp1629
g1591
asg9
S'./sarahs_inbox/parsed/msnbc/txt/1018.txt'
p1630
sg10
g5
sg12
g30
sg31
g709
sbasg31
S'Topic: 24'
p1631
sba(i__main__
inode
p1632
(dp1633
g3
S'gov, dnr, marty, rutherford, tom, balash, state, irwin, alaska, galvin'
p1634
sg5
g6
sg7
(lp1635
g14
asg9
g4
sg10
g23
sg12
(lp1636
(i__main__
inode
p1637
(dp1638
g3
S'Rutherford, Marty K (DNR) [/O=SOA/OU=FIRST ADMINISTRATIVE -- FW Confirmation of the Novemberl 5th discussion'
p1639
sg5
g6
sg7
(lp1640
g1632
asg9
S'./sarahs_inbox/parsed/msnbc/txt/10152.txt'
p1641
sg10
g5
sg12
g30
sg31
g311
sba(i__main__
inode
p1642
(dp1643
g3
S"Lloyd, Denby S (DFG) [/O=SOA/OU=FIRST ADMINISTRATIVE -- RE Governor's Budget Priorities Web Survey"
p1644
sg5
g6
sg7
(lp1645
g1632
asg9
S'./sarahs_inbox/parsed/msnbc/txt/10153.txt'
p1646
sg10
g5
sg12
g30
sg31
g1270
sba(i__main__
inode
p1647
(dp1648
g3
S'gov.sarah@yahoo.com -- Ktuu'
p1649
sg5
g6
sg7
(lp1650
g1632
asg9
S'./sarahs_inbox/parsed/msnbc/txt/10167.txt'
p1651
sg10
g5
sg12
g30
sg31
g646
sba(i__main__
inode
p1652
(dp1653
g3
S'Balash, Joseph R (GOV) [/O=SOA/OU=FIRST ADMINISTRATIVE -- Re Energy pts'
p1654
sg5
g6
sg7
(lp1655
g1632
asg9
S'./sarahs_inbox/parsed/msnbc/txt/10178.txt'
p1656
sg10
g5
sg12
g30
sg31
g158
sba(i__main__
inode
p1657
(dp1658
g3
S'gov.sarah @yahoo.com -- Energy pts'
p1659
sg5
g6
sg7
(lp1660
g1632
asg9
S'./sarahs_inbox/parsed/msnbc/txt/10179.txt'
p1661
sg10
g5
sg12
g30
sg31
g703
sba(i__main__
inode
p1662
(dp1663
g3
S'gov.sarah@yahoo.com -- Re AEA Director'
p1664
sg5
g6
sg7
(lp1665
g1632
asg9
S'./sarahs_inbox/parsed/msnbc/txt/10181.txt'
p1666
sg10
g5
sg12
g30
sg31
g369
sba(i__main__
inode
p1667
(dp1668
g3
S'gov.sarah@yahoo.com -- AEA Director'
p1669
sg5
g6
sg7
(lp1670
g1632
asg9
S'./sarahs_inbox/parsed/msnbc/txt/10185.txt'
p1671
sg10
g5
sg12
g30
sg31
g387
sbasg31
S'Topic: 25'
p1672
sba(i__main__
inode
p1673
(dp1674
g3
S'letter, airport, dot, meeting, page, use, goode, would, willow, please'
p1675
sg5
g6
sg7
(lp1676
g14
asg9
g4
sg10
g23
sg12
(lp1677
(i__main__
inode
p1678
(dp1679
g3
S'Fagerstrom, Erika (GOV) [/O=SOA/OU=FIRST ADMINISTRATIVE -- Water Pipe Replacement Cost'
p1680
sg5
g6
sg7
(lp1681
g1673
asg9
S'./sarahs_inbox/parsed/msnbc/txt/1000.txt'
p1682
sg10
g5
sg12
g30
sg31
g748
sba(i__main__
inode
p1683
(dp1684
g3
S'Fagerstrom, Erika (GOV) VO=SOA/OU=FIRST ADMINISTRATIVE -- Educ.Comm. Thompson- Request to attend Anchorage Mtg.on "Drop out issue" Fri. 4/18 (10-2pm.)'
p1685
sg5
g6
sg7
(lp1686
g1673
asg9
S'./sarahs_inbox/parsed/msnbc/txt/1005.txt'
p1687
sg10
g5
sg12
g30
sg31
g435
sba(i__main__
inode
p1688
(dp1689
g3
S'PARNELL, S (GOV sponsored) [/O=SOA/OU=FIRST ADMINISTRATIVE -- Kenai River Regs'
p1690
sg5
g6
sg7
(lp1691
g1673
asg9
S'./sarahs_inbox/parsed/msnbc/txt/10141.txt'
p1692
sg10
g5
sg12
g30
sg31
g1159
sba(i__main__
inode
p1693
(dp1694
g3
S'Von Scheben, Leo (DOT) [/O=SOA/OU=FIRST ADMINISTRATIVE -- FW Aleknagik'
p1695
sg5
g6
sg7
(lp1696
g1673
asg9
S'./sarahs_inbox/parsed/msnbc/txt/10150.txt'
p1697
sg10
g5
sg12
g30
sg31
g1238
sba(i__main__
inode
p1698
(dp1699
g3
S'Linda Kovac [Ikovac@chugiakcouncil.org] -- Chugiak Community Council Request re Old Glenn Highway Project'
p1700
sg5
g6
sg7
(lp1701
g1673
asg9
S'./sarahs_inbox/parsed/msnbc/txt/10160.txt'
p1702
sg10
g5
sg12
g30
sg31
g947
sba(i__main__
inode
p1703
(dp1704
g3
S"Palin, Sarah (GOV sponsored ) [govpalin@alaska.gov] -- Re Murph O'brien"
p1705
sg5
g6
sg7
(lp1706
g1673
asg9
S'./sarahs_inbox/parsed/msnbc/txt/10170.txt'
p1707
sg10
g5
sg12
g30
sg31
g879
sbasg31
S'Topic: 26'
p1708
sba(i__main__
inode
p1709
(dp1710
g3
S'state, mat, maid, dairy, energy, farmer, milk, plan, need, governor'
p1711
sg5
g6
sg7
(lp1712
g14
asg9
g4
sg10
g23
sg12
(lp1713
(i__main__
inode
p1714
(dp1715
g3
S'fek9wnr@yahoo.com -- Re Call'
p1716
sg5
g6
sg7
(lp1717
g1709
asg9
S'./sarahs_inbox/parsed/msnbc/txt/1007.txt'
p1718
sg10
g5
sg12
g30
sg31
g989
sba(i__main__
inode
p1719
(dp1720
g3
S'Frye, Ivy J (DOA) [/O=SOA/OU=FIRST ADMINISTRATIVE GROUP/CN=RECIPIENTS/CN=IJFRYE] -- great letter to the editor from Phil Schneider'
p1721
sg5
g6
sg7
(lp1722
g1709
asg9
S'./sarahs_inbox/parsed/msnbc/txt/10156.txt'
p1723
sg10
g5
sg12
g30
sg31
g788
sba(i__main__
inode
p1724
(dp1725
g3
S'Leschper, Beth (GOV) [beth.Ieschper@alaska.gov] -- Remarks for AEA Railbelt Conf'
p1726
sg5
g6
sg7
(lp1727
g1709
asg9
S'./sarahs_inbox/parsed/msnbc/txt/10157.txt'
p1728
sg10
g5
sg12
g30
sg31
g1380
sba(i__main__
inode
p1729
(dp1730
g3
S'gov.sarah @yahoo.com -- Energy pts'
p1731
sg5
g6
sg7
(lp1732
g1709
asg9
S'./sarahs_inbox/parsed/msnbc/txt/10179.txt'
p1733
sg10
g5
sg12
g30
sg31
g703
sba(i__main__
inode
p1734
(dp1735
g3
S'Governor Sarah Palin (GOV sponsored) [governor@alaska.gov] -- RE Health-Care'
p1736
sg5
g6
sg7
(lp1737
g1709
asg9
S'./sarahs_inbox/parsed/msnbc/txt/10184.txt'
p1738
sg10
g5
sg12
g30
sg31
g381
sbasg31
S'Topic: 27'
p1739
sba(i__main__
inode
p1740
(dp1741
g3
S'meghan, stapleton, kari, spencer, state, com, palin, gov, communication, page'
p1742
sg5
g6
sg7
(lp1743
g14
asg9
g4
sg10
g23
sg12
(lp1744
(i__main__
inode
p1745
(dp1746
g3
S'Fagerstrom, Erika (GOV) [/O=SOA/OU=FIRST ADMINISTRATIVE -- Travel Fri. 3/28'
p1747
sg5
g6
sg7
(lp1748
g1740
asg9
S'./sarahs_inbox/parsed/msnbc/txt/1002.txt'
p1749
sg10
g5
sg12
g30
sg31
g32
sba(i__main__
inode
p1750
(dp1751
g3
S'Fagerstrom, Erika (GOV) [/O=SOA/OU=FIRST ADMINISTRATIVE -- RE Romer'
p1752
sg5
g6
sg7
(lp1753
g1740
asg9
S'./sarahs_inbox/parsed/msnbc/txt/1003.txt'
p1754
sg10
g5
sg12
g30
sg31
g38
sba(i__main__
inode
p1755
(dp1756
g3
S'frank bailey [ftb907@yahoo.com] -- Le Ear'
p1757
sg5
g6
sg7
(lp1758
g1740
asg9
S'./sarahs_inbox/parsed/msnbc/txt/;1013.txt'
p1759
sg10
g5
sg12
g30
sg31
g1051
sba(i__main__
inode
p1760
(dp1761
g3
S'Mason , Janice L (GOV) [/O=SOA/OU=FIRST ADMINISTRATIVE -- Re Scheduling'
p1762
sg5
g6
sg7
(lp1763
g1740
asg9
S'./sarahs_inbox/parsed/msnbc/txt/10139.txt'
p1764
sg10
g5
sg12
g30
sg31
g86
sbasg31
S'Topic: 28'
p1765
sba(i__main__
inode
p1766
(dp1767
g3
S'name, great, team, chuck, apoc, crew, think, together, thank, redact'
p1768
sg5
g6
sg7
(lp1769
g14
asg9
g4
sg10
g23
sg12
(lp1770
(i__main__
inode
p1771
(dp1772
g3
S'Fagerstrom, Erika (GOV) [erika.fagerstrom@alaska.gov] -- Flight Information Friday, March 28th Travel Jnu-Anc. Fit. 67'
p1773
sg5
g6
sg7
(lp1774
g1766
asg9
S'./sarahs_inbox/parsed/msnbc/txt/1004.txt'
p1775
sg10
g5
sg12
g30
sg31
g754
sba(i__main__
inode
p1776
(dp1777
g3
S'gov.sarah@yahoo.com -- Re Welcome to WOW! - News'
p1778
sg5
g6
sg7
(lp1779
g1766
asg9
S'./sarahs_inbox/parsed/msnbc/txt/10122.txt'
p1780
sg10
g5
sg12
g30
sg31
g830
sba(i__main__
inode
p1781
(dp1782
g3
S'Colberg, Talis J (LAW) [/O=SOA/OU=FIRST ADMINISTRATIVE -- Re Welcome to WOW! - News'
p1783
sg5
g6
sg7
(lp1784
g1766
asg9
S'./sarahs_inbox/parsed/msnbc/txt/10123.txt'
p1785
sg10
g5
sg12
g30
sg31
g836
sba(i__main__
inode
p1786
(dp1787
g3
S'gov.sarah @yahoo.com -- Fw Welcome to WOW! - News'
p1788
sg5
g6
sg7
(lp1789
g1766
asg9
S'./sarahs_inbox/parsed/msnbc/txt/10124.txt'
p1790
sg10
g5
sg12
g30
sg31
g842
sba(i__main__
inode
p1791
(dp1792
g3
S'frank bailey [ftb907@yahoo.com] -- Le Ear'
p1793
sg5
g6
sg7
(lp1794
g1766
asg9
S'./sarahs_inbox/parsed/msnbc/txt/;1013.txt'
p1795
sg10
g5
sg12
g30
sg31
g1051
sba(i__main__
inode
p1796
(dp1797
g3
S'gov.sarah@yahoo.com -- Fagan'
p1798
sg5
g6
sg7
(lp1799
g1766
asg9
S'./sarahs_inbox/parsed/msnbc/txt/10177.txt'
p1800
sg10
g5
sg12
g30
sg31
g692
sbasg31
S'Topic: 29'
p1801
sbasg31
S'Topic Folder'
p1802
sba(i__main__
inode
p1803
(dp1804
g3
g4
sg5
g6
sg7
(lp1805
g1
asg9
g4
sg10
g17
sg12
g30
sg31
S'Social Folder'
p1806
sba(i__main__
inode
p1807
(dp1808
g3
g4
sg5
g6
sg7
(lp1809
g1
asg9
g4
sg10
g17
sg12
(lp1810
sg31
S'Unsorted Folder'
p1811
sbasg31
S'ROOT'
p1812
sbag14
ag1803
ag1807
ag19
ag160
ag178
ag395
ag407
ag425
ag479
ag738
ag761
ag810
ag881
ag926
ag949
ag1021
ag1098
ag1193
ag1245
ag1277
ag1349
ag1365
ag1382
ag1458
ag1514
ag1535
ag1591
ag1632
ag1673
ag1709
ag1740
ag1766
ag25
ag33
ag39
ag45
ag51
ag57
ag63
ag69
ag75
ag81
ag87
ag93
ag99
ag105
ag111
ag117
ag123
ag129
ag135
ag141
ag147
ag153
ag165
ag171
ag183
ag189
ag195
ag201
ag207
ag213
ag219
ag225
ag231
ag237
ag242
ag248
ag254
ag260
ag266
ag272
ag277
ag282
ag288
ag294
ag300
ag306
ag312
ag318
ag323
ag328
ag334
ag340
ag346
ag352
ag358
ag364
ag370
ag376
ag382
ag388
ag400
ag412
ag418
ag430
ag436
ag441
ag446
ag451
ag456
ag461
ag466
ag472
ag484
ag489
ag494
ag499
ag504
ag509
ag514
ag519
ag525
ag531
ag536
ag541
ag546
ag551
ag556
ag562
ag568
ag574
ag579
ag584
ag589
ag594
ag599
ag604
ag609
ag614
ag619
ag625
ag630
ag635
ag641
ag647
ag652
ag657
ag662
ag667
ag672
ag677
ag682
ag687
ag693
ag698
ag704
ag710
ag715
ag720
ag726
ag731
ag743
ag749
ag755
ag766
ag771
ag777
ag783
ag789
ag794
ag799
ag804
ag815
ag820
ag825
ag831
ag837
ag843
ag848
ag853
ag858
ag863
ag868
ag874
ag886
ag892
ag897
ag902
ag907
ag913
ag919
ag931
ag936
ag942
ag954
ag959
ag964
ag969
ag974
ag979
ag984
ag990
ag995
ag1000
ag1005
ag1010
ag1015
ag1026
ag1031
ag1036
ag1041
ag1046
ag1052
ag1057
ag1062
ag1067
ag1072
ag1077
ag1082
ag1087
ag1092
ag1103
ag1108
ag1113
ag1118
ag1124
ag1129
ag1134
ag1139
ag1144
ag1149
ag1154
ag1160
ag1165
ag1170
ag1175
ag1181
ag1187
ag1198
ag1203
ag1208
ag1213
ag1218
ag1223
ag1228
ag1233
ag1239
ag1250
ag1255
ag1260
ag1265
ag1271
ag1282
ag1288
ag1293
ag1298
ag1303
ag1308
ag1313
ag1318
ag1323
ag1328
ag1333
ag1338
ag1343
ag1354
ag1359
ag1370
ag1375
ag1387
ag1392
ag1397
ag1402
ag1407
ag1412
ag1417
ag1422
ag1427
ag1432
ag1437
ag1442
ag1447
ag1452
ag1463
ag1468
ag1473
ag1478
ag1483
ag1488
ag1493
ag1498
ag1503
ag1508
ag1519
ag1524
ag1529
ag1540
ag1545
ag1550
ag1555
ag1560
ag1565
ag1570
ag1575
ag1580
ag1585
ag1596
ag1601
ag1606
ag1611
ag1616
ag1621
ag1626
ag1637
ag1642
ag1647
ag1652
ag1657
ag1662
ag1667
ag1678
ag1683
ag1688
ag1693
ag1698
ag1703
ag1714
ag1719
ag1724
ag1729
ag1734
ag1745
ag1750
ag1755
ag1760
ag1771
ag1776
ag1781
ag1786
ag1791
ag1796
a.