(lp0
(i__main__
inode
p1
(dp2
S'description'
p3
S''
p4
sS'email'
p5
(lp6
sS'parents'
p7
(lp8
sS'email_directory'
p9
g4
sS'type'
p10
S'root'
p11
sS'children'
p12
(lp13
(i__main__
inode
p14
(dp15
g3
g4
sg5
g6
sg7
(lp16
g1
asg9
g4
sg10
S'sub_root'
p17
sg12
(lp18
(i__main__
inode
p19
(dp20
g3
S'group, recipient, roston, first, administrative, soa, janice, unknown, mason, subject'
p21
sg5
g6
sg7
(lp22
g14
asg9
g4
sg10
S'directory'
p23
sg12
(lp24
(i__main__
inode
p25
(dp26
g3
S'Fagerstrom, Erika (GOV) [/O=SOA/OU=FIRST ADMINISTRATIVE -- Travel Fri. 3/28'
p27
sg5
g6
sg7
(lp28
g19
asg9
S'./sarahs_inbox/parsed/msnbc/txt/1002.txt'
p29
sg10
S'email'
p30
sg12
(lp31
sS'name'
p32
S'1002.txt'
p33
sba(i__main__
inode
p34
(dp35
g3
S'Fagerstrom, Erika (GOV) [/O=SOA/OU=FIRST ADMINISTRATIVE -- RE Romer'
p36
sg5
g6
sg7
(lp37
g19
asg9
S'./sarahs_inbox/parsed/msnbc/txt/1003.txt'
p38
sg10
g30
sg12
g31
sg32
S'1003.txt'
p39
sba(i__main__
inode
p40
(dp41
g3
S"Fagerstrom, Erika (GOV) [erika.fagerstrom@alaska.gov] -- RE FYI- RSVP Spouses' Luncheon Friday, March 28, 2008 1200 to 130pm."
p42
sg5
g6
sg7
(lp43
g19
asg9
S'./sarahs_inbox/parsed/msnbc/txt/;1006.txt'
p44
sg10
g30
sg12
g31
sg32
S';1006.txt'
p45
sba(i__main__
inode
p46
(dp47
g3
S'gov.sarah@yahoo.com -- Re PSA with Todd'
p48
sg5
g6
sg7
(lp49
g19
asg9
S'./sarahs_inbox/parsed/msnbc/txt/10109.txt'
p50
sg10
g30
sg12
g31
sg32
S'10109.txt'
p51
sba(i__main__
inode
p52
(dp53
g3
S'Mason , Janice L (GOV) I/O=SOA/OU=FIRST ADMINISTRATIVE -- RE Military_and Veterans_Affairs'
p54
sg5
g6
sg7
(lp55
g19
asg9
S'./sarahs_inbox/parsed/msnbc/txt/10113.txt'
p56
sg10
g30
sg12
g31
sg32
S'10113.txt'
p57
sba(i__main__
inode
p58
(dp59
g3
S'Mason , Janice L (GOV) [/O=SOA/OU=FIRST ADMINISTRATIVE -- Luggage'
p60
sg5
g6
sg7
(lp61
g19
asg9
S'./sarahs_inbox/parsed/msnbc/txt/10115.txt'
p62
sg10
g30
sg12
g31
sg32
S'10115.txt'
p63
sba(i__main__
inode
p64
(dp65
g3
S'Mason , Janice L (GOV) [/O=SOA/OU=FIRST ADMINISTRATIVE -- Troops Returning'
p66
sg5
g6
sg7
(lp67
g19
asg9
S'./sarahs_inbox/parsed/msnbc/txt/10117.txt'
p68
sg10
g30
sg12
g31
sg32
S'10117.txt'
p69
sba(i__main__
inode
p70
(dp71
g3
S'PARNELL, S (GOV sponsored) [/O=SOA/OU=FIRST ADMINISTRATIVE -- Thinking out loud'
p72
sg5
g6
sg7
(lp73
g19
asg9
S'./sarahs_inbox/parsed/msnbc/txt/10129.txt'
p74
sg10
g30
sg12
g31
sg32
S'10129.txt'
p75
sba(i__main__
inode
p76
(dp77
g3
S'Frye, Ivy J (DOA) [/O=SOA/OU=FIRST ADMINISTRATIVE -- Present from paulette'
p78
sg5
g6
sg7
(lp79
g19
asg9
S'./sarahs_inbox/parsed/msnbc/txt/10138.txt'
p80
sg10
g30
sg12
g31
sg32
S'10138.txt'
p81
sba(i__main__
inode
p82
(dp83
g3
S'Mason , Janice L (GOV) [/O=SOA/OU=FIRST ADMINISTRATIVE -- Re Scheduling'
p84
sg5
g6
sg7
(lp85
g19
asg9
S'./sarahs_inbox/parsed/msnbc/txt/10139.txt'
p86
sg10
g30
sg12
g31
sg32
S'10139.txt'
p87
sba(i__main__
inode
p88
(dp89
g3
S'Frye, Ivy J (DOA) [/O=SOA/OU=FIRST ADMINISTRATIVE -- Fw Psea ads'
p90
sg5
g6
sg7
(lp91
g19
asg9
S'./sarahs_inbox/parsed/msnbc/txt/1014.txt'
p92
sg10
g30
sg12
g31
sg32
S'1014.txt'
p93
sba(i__main__
inode
p94
(dp95
g3
S'Mason, Janice L (GOV) [/O=SOA/OU=FIRST ADMINISTRATIVE -- Re Scheduling'
p96
sg5
g6
sg7
(lp97
g19
asg9
S'./sarahs_inbox/parsed/msnbc/txt/10140.txt'
p98
sg10
g30
sg12
g31
sg32
S'10140.txt'
p99
sba(i__main__
inode
p100
(dp101
g3
S'Mason, Janice L (GOV) [/O=SOA/OU=FIRST ADMINISTRATIVE -- Telephone Calls - Drop Out Students'
p102
sg5
g6
sg7
(lp103
g19
asg9
S'./sarahs_inbox/parsed/msnbc/txt/10142.txt'
p104
sg10
g30
sg12
g31
sg32
S'10142.txt'
p105
sba(i__main__
inode
p106
(dp107
g3
S'Frye, Ivy J (DOA) [/O=SOA/OU=FIRST ADMINISTRATIVE GROUP/CN=RECIPIENTS/CN=IJFRYEI -- FW empire'
p108
sg5
g6
sg7
(lp109
g19
asg9
S'./sarahs_inbox/parsed/msnbc/txt/1015.txt'
p110
sg10
g30
sg12
g31
sg32
S'1015.txt'
p111
sba(i__main__
inode
p112
(dp113
g3
S'Morgan, Katryn L (GOV) [/O=SOA/OU=FIRST ADMINISTRATIVE -- AK Right to Life Remarks'
p114
sg5
g6
sg7
(lp115
g19
asg9
S'./sarahs_inbox/parsed/msnbc/txt/10151.txt'
p116
sg10
g30
sg12
g31
sg32
S'10151.txt'
p117
sba(i__main__
inode
p118
(dp119
g3
S'Colberg, Tails J (LAW) [/O=SOA/OU=FIRST ADMINISTRATIVE -- Today.'
p120
sg5
g6
sg7
(lp121
g19
asg9
S'./sarahs_inbox/parsed/msnbc/txt/10155.txt'
p122
sg10
g30
sg12
g31
sg32
S'10155.txt'
p123
sba(i__main__
inode
p124
(dp125
g3
S'Fagerstrom, Erika (GOV) [/O=SOA/OU=FIRST ADMINISTRATIVE -- Flights'
p126
sg5
g6
sg7
(lp127
g19
asg9
S'./sarahs_inbox/parsed/msnbc/txt/1016.txt'
p128
sg10
g30
sg12
g31
sg32
S'1016.txt'
p129
sba(i__main__
inode
p130
(dp131
g3
S'Frye, Ivy J (DOA) [/O=SOA/OU=FIRST ADMINISTRATIVE -- Car trouble'
p132
sg5
g6
sg7
(lp133
g19
asg9
S'./sarahs_inbox/parsed/msnbc/txt/10162.txt'
p134
sg10
g30
sg12
g31
sg32
S'10162.txt'
p135
sba(i__main__
inode
p136
(dp137
g3
S'Frye, Ivy J (DOA) [/O=SOA/OU=FIRST ADMINISTRATIVE -- Re Happy Thanksgiving!'
p138
sg5
g6
sg7
(lp139
g19
asg9
S'./sarahs_inbox/parsed/msnbc/txt/10164.txt'
p140
sg10
g30
sg12
g31
sg32
S'10164.txt'
p141
sba(i__main__
inode
p142
(dp143
g3
S'Fagerstrom, Erika (GOV) [/O=SOA/OU=FIRST ADMINISTRATIVE -- Dates are TH 3/3 and F 3/4'
p144
sg5
g6
sg7
(lp145
g19
asg9
S'./sarahs_inbox/parsed/msnbc/txt/1017.txt'
p146
sg10
g30
sg12
g31
sg32
S'1017.txt'
p147
sba(i__main__
inode
p148
(dp149
g3
S'PARNELL, S (GOV sponsored) [/O=SOA/OU=FIRST ADMINISTRATIVE -- Re Fagan'
p150
sg5
g6
sg7
(lp151
g19
asg9
S'./sarahs_inbox/parsed/msnbc/txt/10176.txt'
p152
sg10
g30
sg12
g31
sg32
S'10176.txt'
p153
sba(i__main__
inode
p154
(dp155
g3
S'Balash, Joseph R (GOV) [/O=SOA/OU=FIRST ADMINISTRATIVE -- Re Energy pts'
p156
sg5
g6
sg7
(lp157
g19
asg9
S'./sarahs_inbox/parsed/msnbc/txt/10178.txt'
p158
sg10
g30
sg12
g31
sg32
S'10178.txt'
p159
sbasg32
S'abc'
p160
sba(i__main__
inode
p161
(dp162
g3
S'process, executive, state, constitution, attorney, client, sec, art, mail, communication'
p163
sg5
g6
sg7
(lp164
g14
asg9
g4
sg10
g23
sg12
(lp165
(i__main__
inode
p166
(dp167
g3
S'Frye, Ivy J (DOA) [/O=SOA/OU=FIRST ADMINISTRATIVE -- Fw Cell phone reimbursement'
p168
sg5
g6
sg7
(lp169
g161
asg9
S'./sarahs_inbox/parsed/msnbc/txt/1001.txt'
p170
sg10
g30
sg12
g31
sg32
S'1001.txt'
p171
sba(i__main__
inode
p172
(dp173
g3
S'Mason , Janice L (GOV) [/O=SOA/OU=FIRST ADMINISTRATIVE -- Luggage'
p174
sg5
g6
sg7
(lp175
g161
asg9
S'./sarahs_inbox/parsed/msnbc/txt/10119.txt'
p176
sg10
g30
sg12
g31
sg32
S'10119.txt'
p177
sbasg32
S'def'
p178
sba(i__main__
inode
p179
(dp180
g3
S'know, get, would, time, want, like, good, work, people, think'
p181
sg5
g6
sg7
(lp182
g14
asg9
g4
sg10
g23
sg12
(lp183
(i__main__
inode
p184
(dp185
g3
S"Fagerstrom, Erika (GOV) [erika.fagerstrom@alaska.gov] -- Final RSVP List- Spouses' Luncheon 1200-130pm."
p186
sg5
g6
sg7
(lp187
g179
asg9
S'./sarahs_inbox/parsed/msnbc/txt/1010.txt'
p188
sg10
g30
sg12
g31
sg32
S'1010.txt'
p189
sba(i__main__
inode
p190
(dp191
g3
S'Frye, Ivy J (DOA) [/O=SOA/OU=FIRST ADMINISTRATIVE -- Re Fwd Support PR Campaign from Trooper President'
p192
sg5
g6
sg7
(lp193
g179
asg9
S'./sarahs_inbox/parsed/msnbc/txt/1011.txt'
p194
sg10
g30
sg12
g31
sg32
S'1011.txt'
p195
sba(i__main__
inode
p196
(dp197
g3
S"Governor Sarah Palin (GOV sponsored) [governor@alaska.govj -- FW George Brown's granddaughter"
p198
sg5
g6
sg7
(lp199
g179
asg9
S'./sarahs_inbox/parsed/msnbc/txt/10110.txt'
p200
sg10
g30
sg12
g31
sg32
S'10110.txt'
p201
sba(i__main__
inode
p202
(dp203
g3
S'Mason , Janice L (GOV) [/O=SOA/OU=FIRST ADMINISTRATIVE -- RE Military_and_VeteransAffairs'
p204
sg5
g6
sg7
(lp205
g179
asg9
S'./sarahs_inbox/parsed/msnbc/txt/10114.txt'
p206
sg10
g30
sg12
g31
sg32
S'10114.txt'
p207
sba(i__main__
inode
p208
(dp209
g3
S'PARNELL, S (GOV sponsored) [/O=SOA/OU=FIRST ADMINISTRATIVE -- LG Office Budget'
p210
sg5
g6
sg7
(lp211
g179
asg9
S'./sarahs_inbox/parsed/msnbc/txt/10116.txt'
p212
sg10
g30
sg12
g31
sg32
S'10116.txt'
p213
sba(i__main__
inode
p214
(dp215
g3
S'PARNELL, S (GOV sponsored ) [/O=SOA/OU=FIRST ADMINISTRATIVE -- LG Office Budget'
p216
sg5
g6
sg7
(lp217
g179
asg9
S'./sarahs_inbox/parsed/msnbc/txt/10118.txt'
p218
sg10
g30
sg12
g31
sg32
S'10118.txt'
p219
sba(i__main__
inode
p220
(dp221
g3
S'ftb907@yahoo.com -- Re Fwd Support PR Campaign from Trooper President'
p222
sg5
g6
sg7
(lp223
g179
asg9
S'./sarahs_inbox/parsed/msnbc/txt/1012.txt'
p224
sg10
g30
sg12
g31
sg32
S'1012.txt'
p225
sba(i__main__
inode
p226
(dp227
g3
S'PARNELL, S (GOV sponsored) [/O=SOA/OU=FIRST ADMINISTRATIVE -- Re Thinking out loud'
p228
sg5
g6
sg7
(lp229
g179
asg9
S'./sarahs_inbox/parsed/msnbc/txt/10127.txt'
p230
sg10
g30
sg12
g31
sg32
S'10127.txt'
p231
sba(i__main__
inode
p232
(dp233
g3
S'gov.sarah@yahoo.com -- Re Thinking out loud'
p234
sg5
g6
sg7
(lp235
g179
asg9
S'./sarahs_inbox/parsed/msnbc/txt/10128.txt'
p236
sg10
g30
sg12
g31
sg32
S'10128.txt'
p237
sba(i__main__
inode
p238
(dp239
g3
S'PARNELL, S (GOV sponsored) [/O=SOA/OU=FIRST ADMINISTRATIVE -- Thinking out loud'
p240
sg5
g6
sg7
(lp241
g179
asg9
S'./sarahs_inbox/parsed/msnbc/txt/10129.txt'
p242
sg10
g30
sg12
g31
sg32
g75
sba(i__main__
inode
p243
(dp244
g3
S'gov.sarah@yahoo.com -- Re Scheduling'
p245
sg5
g6
sg7
(lp246
g179
asg9
S'./sarahs_inbox/parsed/msnbc/txt/10130.txt'
p247
sg10
g30
sg12
g31
sg32
S'10130.txt'
p248
sba(i__main__
inode
p249
(dp250
g3
S'gov.sarah@yahoo.com -- Re Scheduling'
p251
sg5
g6
sg7
(lp252
g179
asg9
S'./sarahs_inbox/parsed/msnbc/txt/10131.txt'
p253
sg10
g30
sg12
g31
sg32
S'10131.txt'
p254
sba(i__main__
inode
p255
(dp256
g3
S'gov. sarah@yahoo.com -- Re Telephone Calls - Drop Out Students'
p257
sg5
g6
sg7
(lp258
g179
asg9
S'./sarahs_inbox/parsed/msnbc/txt/10132.txt'
p259
sg10
g30
sg12
g31
sg32
S'10132.txt'
p260
sba(i__main__
inode
p261
(dp262
g3
S'gov.sarah@yahoo.com -- Re Present from paulette'
p263
sg5
g6
sg7
(lp264
g179
asg9
S'./sarahs_inbox/parsed/msnbc/txt/10136.txt'
p265
sg10
g30
sg12
g31
sg32
S'10136.txt'
p266
sba(i__main__
inode
p267
(dp268
g3
S'gov.sarah@yahoo.com -- Re Scheduling'
p269
sg5
g6
sg7
(lp270
g179
asg9
S'./sarahs_inbox/parsed/msnbc/txt/10137.txt'
p271
sg10
g30
sg12
g31
sg32
S'10137.txt'
p272
sba(i__main__
inode
p273
(dp274
g3
S'Frye, Ivy J (DOA) [/O=SOA/OU=FIRST ADMINISTRATIVE -- Present from paulette'
p275
sg5
g6
sg7
(lp276
g179
asg9
S'./sarahs_inbox/parsed/msnbc/txt/10138.txt'
p277
sg10
g30
sg12
g31
sg32
g81
sba(i__main__
inode
p278
(dp279
g3
S'Mason, Janice L (GOV) [/O=SOA/OU=FIRST ADMINISTRATIVE -- Re Scheduling'
p280
sg5
g6
sg7
(lp281
g179
asg9
S'./sarahs_inbox/parsed/msnbc/txt/10140.txt'
p282
sg10
g30
sg12
g31
sg32
g99
sba(i__main__
inode
p283
(dp284
g3
S'Mason , Janice L (GOV) [/O=SOA/OU=FIRST ADMINISTRATIVE -- Scheduling'
p285
sg5
g6
sg7
(lp286
g179
asg9
S'./sarahs_inbox/parsed/msnbc/txt/10143.txt'
p287
sg10
g30
sg12
g31
sg32
S'10143.txt'
p288
sba(i__main__
inode
p289
(dp290
g3
S'John Katz jwkatz ALASKADC.org] -- Federal Funding/State Budget'
p291
sg5
g6
sg7
(lp292
g179
asg9
S'./sarahs_inbox/parsed/msnbc/txt/10144.txt'
p293
sg10
g30
sg12
g31
sg32
S'10144.txt'
p294
sba(i__main__
inode
p295
(dp296
g3
S'Morgan , Katryn L (GOV) [/O=SOA/OU=FIRST ADMINISTRATIVE -- AK Right to Life Remarks'
p297
sg5
g6
sg7
(lp298
g179
asg9
S'./sarahs_inbox/parsed/msnbc/txt/10145.txt'
p299
sg10
g30
sg12
g31
sg32
S'10145.txt'
p300
sba(i__main__
inode
p301
(dp302
g3
S'Governor Sarah Palin (GOV sponsored) [govemor@alaska.gov] -- RE Health-Care'
p303
sg5
g6
sg7
(lp304
g179
asg9
S'./sarahs_inbox/parsed/msnbc/txt/10149.txt'
p305
sg10
g30
sg12
g31
sg32
S'10149.txt'
p306
sba(i__main__
inode
p307
(dp308
g3
S'Rutherford, Marty K (DNR) [/O=SOA/OU=FIRST ADMINISTRATIVE -- FW Confirmation of the Novemberl 5th discussion'
p309
sg5
g6
sg7
(lp310
g179
asg9
S'./sarahs_inbox/parsed/msnbc/txt/10152.txt'
p311
sg10
g30
sg12
g31
sg32
S'10152.txt'
p312
sba(i__main__
inode
p313
(dp314
g3
S'Sarah Palin [ gov.sarah @yahoo.com] -- Re Happy Thanksgiving!'
p315
sg5
g6
sg7
(lp316
g179
asg9
S'./sarahs_inbox/parsed/msnbc/txt/10159.txt'
p317
sg10
g30
sg12
g31
sg32
S'10159.txt'
p318
sba(i__main__
inode
p319
(dp320
g3
S'Frye, Ivy J (DOA) [/O=SOA/OU=FIRST ADMINISTRATIVE -- Car trouble'
p321
sg5
g6
sg7
(lp322
g179
asg9
S'./sarahs_inbox/parsed/msnbc/txt/10162.txt'
p323
sg10
g30
sg12
g31
sg32
g135
sba(i__main__
inode
p324
(dp325
g3
S'Frye, Ivy J (DOA) [/O=SOA/OU=FIRST ADMINISTRATIVE -- Re Happy Thanksgiving!'
p326
sg5
g6
sg7
(lp327
g179
asg9
S'./sarahs_inbox/parsed/msnbc/txt/10164.txt'
p328
sg10
g30
sg12
g31
sg32
g141
sba(i__main__
inode
p329
(dp330
g3
S'gov.sarah@yahoo.com -- Re Conoco'
p331
sg5
g6
sg7
(lp332
g179
asg9
S'./sarahs_inbox/parsed/msnbc/txt/10168.txt'
p333
sg10
g30
sg12
g31
sg32
S'10168.txt'
p334
sba(i__main__
inode
p335
(dp336
g3
S'gov.sarah@yahoo.com -- Re Conoco'
p337
sg5
g6
sg7
(lp338
g179
asg9
S'./sarahs_inbox/parsed/msnbc/txt/10169.txt'
p339
sg10
g30
sg12
g31
sg32
S'10169.txt'
p340
sba(i__main__
inode
p341
(dp342
g3
S'PARNELL, S (GOV sponsored) [/O=SOA/OU=FIRST ADMINISTRATIVE -- Re Fagan'
p343
sg5
g6
sg7
(lp344
g179
asg9
S'./sarahs_inbox/parsed/msnbc/txt/10172.txt'
p345
sg10
g30
sg12
g31
sg32
S'10172.txt'
p346
sba(i__main__
inode
p347
(dp348
g3
S'gov.sarah @yahoo.com -- Re Fagan'
p349
sg5
g6
sg7
(lp350
g179
asg9
S'./sarahs_inbox/parsed/msnbc/txt/10173.txt'
p351
sg10
g30
sg12
g31
sg32
S'10173.txt'
p352
sba(i__main__
inode
p353
(dp354
g3
S'PARNELL, S (GOV sponsored) [/O=SOA/OU=FIRST ADMINISTRATIVE -- Re Fagan'
p355
sg5
g6
sg7
(lp356
g179
asg9
S'./sarahs_inbox/parsed/msnbc/txt/10174.txt'
p357
sg10
g30
sg12
g31
sg32
S'10174.txt'
p358
sba(i__main__
inode
p359
(dp360
g3
S'gov.sarah@yahoo.com -- Re Fagan'
p361
sg5
g6
sg7
(lp362
g179
asg9
S'./sarahs_inbox/parsed/msnbc/txt/10175.txt'
p363
sg10
g30
sg12
g31
sg32
S'10175.txt'
p364
sba(i__main__
inode
p365
(dp366
g3
S'gov.sarah@yahoo.com -- Re AEA Director'
p367
sg5
g6
sg7
(lp368
g179
asg9
S'./sarahs_inbox/parsed/msnbc/txt/10181.txt'
p369
sg10
g30
sg12
g31
sg32
S'10181.txt'
p370
sba(i__main__
inode
p371
(dp372
g3
S'gov.sarah@yahoo.com -- Re Conoco'
p373
sg5
g6
sg7
(lp374
g179
asg9
S'./sarahs_inbox/parsed/msnbc/txt/10183.txt'
p375
sg10
g30
sg12
g31
sg32
S'10183.txt'
p376
sba(i__main__
inode
p377
(dp378
g3
S'Governor Sarah Palin (GOV sponsored) [governor@alaska.gov] -- RE Health-Care'
p379
sg5
g6
sg7
(lp380
g179
asg9
S'./sarahs_inbox/parsed/msnbc/txt/10184.txt'
p381
sg10
g30
sg12
g31
sg32
S'10184.txt'
p382
sba(i__main__
inode
p383
(dp384
g3
S'gov.sarah@yahoo.com -- AEA Director'
p385
sg5
g6
sg7
(lp386
g179
asg9
S'./sarahs_inbox/parsed/msnbc/txt/10185.txt'
p387
sg10
g30
sg12
g31
sg32
S'10185.txt'
p388
sba(i__main__
inode
p389
(dp390
g3
S'Frye, Ivy J (DOA) [/O=SOA/OU=FIRST ADMINISTRATIVE -- Fw Conoco'
p391
sg5
g6
sg7
(lp392
g179
asg9
S'./sarahs_inbox/parsed/msnbc/txt/10186.txt'
p393
sg10
g30
sg12
g31
sg32
S'10186.txt'
p394
sbasg32
S'wsb'
p395
sba(i__main__
inode
p396
(dp397
g3
S'rural, native, bethel, alaska, dec, village, water, rhonda, mine, commission'
p398
sg5
g6
sg7
(lp399
g14
asg9
g4
sg10
g23
sg12
(lp400
(i__main__
inode
p401
(dp402
g3
S'Governor Sarah Palin (GOV sponsored) [governor@alaska.gov] -- RE Military_and_Veterans_Affairs'
p403
sg5
g6
sg7
(lp404
g396
asg9
S'./sarahs_inbox/parsed/msnbc/txt/10158.txt'
p405
sg10
g30
sg12
g31
sg32
S'10158.txt'
p406
sbasg32
S'Topic: 3'
p407
sba(i__main__
inode
p408
(dp409
g3
S'state, senator, senate, would, bill, house, republican, vote, election, president'
p410
sg5
g6
sg7
(lp411
g14
asg9
g4
sg10
g23
sg12
(lp412
(i__main__
inode
p413
(dp414
g3
S'gov.sarah@yahoo.com -- Re Preparation and roll-out related to filing of lawsuit against Mercer'
p415
sg5
g6
sg7
(lp416
g408
asg9
S'./sarahs_inbox/parsed/msnbc/txt/10112.txt'
p417
sg10
g30
sg12
g31
sg32
S'10112.txt'
p418
sba(i__main__
inode
p419
(dp420
g3
S'Governor Sarah Palin (GOV sponsored) [govemor@alaska.gov] -- RE Other'
p421
sg5
g6
sg7
(lp422
g408
asg9
S'./sarahs_inbox/parsed/msnbc/txt/10126.txt'
p423
sg10
g30
sg12
g31
sg32
S'10126.txt'
p424
sbasg32
S'Topic: 4'
p425
sba(i__main__
inode
p426
(dp427
g3
S'governor, event, would, day, travel, anchorage, family, trip, attend, meeting'
p428
sg5
g6
sg7
(lp429
g14
asg9
g4
sg10
g23
sg12
(lp430
(i__main__
inode
p431
(dp432
g3
S'Fagerstrom, Erika (GOV) VO=SOA/OU=FIRST ADMINISTRATIVE -- Educ.Comm. Thompson- Request to attend Anchorage Mtg.on "Drop out issue" Fri. 4/18 (10-2pm.)'
p433
sg5
g6
sg7
(lp434
g426
asg9
S'./sarahs_inbox/parsed/msnbc/txt/1005.txt'
p435
sg10
g30
sg12
g31
sg32
S'1005.txt'
p436
sba(i__main__
inode
p437
(dp438
g3
S'Mason , Janice L (GOV) [/O=SOA/OU=FIRST ADMINISTRATIVE -- RE Military_and_VeteransAffairs'
p439
sg5
g6
sg7
(lp440
g426
asg9
S'./sarahs_inbox/parsed/msnbc/txt/10114.txt'
p441
sg10
g30
sg12
g31
sg32
g207
sba(i__main__
inode
p442
(dp443
g3
S'Mason , Janice L (GOV) [/O=SOA/OU=FIRST ADMINISTRATIVE -- Troops Returning'
p444
sg5
g6
sg7
(lp445
g426
asg9
S'./sarahs_inbox/parsed/msnbc/txt/10117.txt'
p446
sg10
g30
sg12
g31
sg32
g69
sba(i__main__
inode
p447
(dp448
g3
S'gov.sarah@yahoo.com -- Re Scheduling'
p449
sg5
g6
sg7
(lp450
g426
asg9
S'./sarahs_inbox/parsed/msnbc/txt/10130.txt'
p451
sg10
g30
sg12
g31
sg32
g248
sba(i__main__
inode
p452
(dp453
g3
S'gov.sarah@yahoo.com -- Re Scheduling'
p454
sg5
g6
sg7
(lp455
g426
asg9
S'./sarahs_inbox/parsed/msnbc/txt/10131.txt'
p456
sg10
g30
sg12
g31
sg32
g254
sba(i__main__
inode
p457
(dp458
g3
S'gov.sarah@yahoo.com -- Re Scheduling'
p459
sg5
g6
sg7
(lp460
g426
asg9
S'./sarahs_inbox/parsed/msnbc/txt/10137.txt'
p461
sg10
g30
sg12
g31
sg32
g272
sba(i__main__
inode
p462
(dp463
g3
S'Governor Sarah Palin (GOV sponsored) [governor@alaska.gov] -- RE Military_and_Veterans_Affairs'
p464
sg5
g6
sg7
(lp465
g426
asg9
S'./sarahs_inbox/parsed/msnbc/txt/10158.txt'
p466
sg10
g30
sg12
g31
sg32
g406
sba(i__main__
inode
p467
(dp468
g3
S'gov.sarah@yahoo.com -- Re Scheduling'
p469
sg5
g6
sg7
(lp470
g426
asg9
S'./sarahs_inbox/parsed/msnbc/txt/10171.txt'
p471
sg10
g30
sg12
g31
sg32
S'10171.txt'
p472
sba(i__main__
inode
p473
(dp474
g3
S'gov.sarah@yahoo.com -- Re School'
p475
sg5
g6
sg7
(lp476
g426
asg9
S'./sarahs_inbox/parsed/msnbc/txt/10180.txt'
p477
sg10
g30
sg12
g31
sg32
S'10180.txt'
p478
sbasg32
S'Topic: 5'
p479
sba(i__main__
inode
p480
(dp481
g3
S'sent, one, gov, blackberry, device, cellular, pra, unknown, thanks, janice'
p482
sg5
g6
sg7
(lp483
g14
asg9
g4
sg10
g23
sg12
(lp484
(i__main__
inode
p485
(dp486
g3
S'Frye, Ivy J (DOA) [/O=SOA/OU=FIRST ADMINISTRATIVE -- Fw Cell phone reimbursement'
p487
sg5
g6
sg7
(lp488
g480
asg9
S'./sarahs_inbox/parsed/msnbc/txt/1001.txt'
p489
sg10
g30
sg12
g31
sg32
g171
sba(i__main__
inode
p490
(dp491
g3
S'gov.sarah@yahoo.com -- Re PSA with Todd'
p492
sg5
g6
sg7
(lp493
g480
asg9
S'./sarahs_inbox/parsed/msnbc/txt/10109.txt'
p494
sg10
g30
sg12
g31
sg32
g51
sba(i__main__
inode
p495
(dp496
g3
S"Governor Sarah Palin (GOV sponsored) [governor@alaska.govj -- FW George Brown's granddaughter"
p497
sg5
g6
sg7
(lp498
g480
asg9
S'./sarahs_inbox/parsed/msnbc/txt/10110.txt'
p499
sg10
g30
sg12
g31
sg32
g201
sba(i__main__
inode
p500
(dp501
g3
S'gov.sarah@yahoo.com -- Re Preparation and roll-out related to filing of lawsuit against Mercer'
p502
sg5
g6
sg7
(lp503
g480
asg9
S'./sarahs_inbox/parsed/msnbc/txt/10112.txt'
p504
sg10
g30
sg12
g31
sg32
g418
sba(i__main__
inode
p505
(dp506
g3
S'Mason , Janice L (GOV) I/O=SOA/OU=FIRST ADMINISTRATIVE -- RE Military_and Veterans_Affairs'
p507
sg5
g6
sg7
(lp508
g480
asg9
S'./sarahs_inbox/parsed/msnbc/txt/10113.txt'
p509
sg10
g30
sg12
g31
sg32
g57
sba(i__main__
inode
p510
(dp511
g3
S'Mason , Janice L (GOV) [/O=SOA/OU=FIRST ADMINISTRATIVE -- Luggage'
p512
sg5
g6
sg7
(lp513
g480
asg9
S'./sarahs_inbox/parsed/msnbc/txt/10115.txt'
p514
sg10
g30
sg12
g31
sg32
g63
sba(i__main__
inode
p515
(dp516
g3
S'Mason , Janice L (GOV) [/O=SOA/OU=FIRST ADMINISTRATIVE -- Troops Returning'
p517
sg5
g6
sg7
(lp518
g480
asg9
S'./sarahs_inbox/parsed/msnbc/txt/10117.txt'
p519
sg10
g30
sg12
g31
sg32
g69
sba(i__main__
inode
p520
(dp521
g3
S'Sarah Palin [gov.sarah@yahoo.com] -- Re AK Right to Life Remarks'
p522
sg5
g6
sg7
(lp523
g480
asg9
S'./sarahs_inbox/parsed/msnbc/txt/10120.txt'
p524
sg10
g30
sg12
g31
sg32
S'10120.txt'
p525
sba(i__main__
inode
p526
(dp527
g3
S'gov.sarah @yahoo.com -- CSI Alaska'
p528
sg5
g6
sg7
(lp529
g480
asg9
S'./sarahs_inbox/parsed/msnbc/txt/10125.txt'
p530
sg10
g30
sg12
g31
sg32
S'10125.txt'
p531
sba(i__main__
inode
p532
(dp533
g3
S'PARNELL, S (GOV sponsored) [/O=SOA/OU=FIRST ADMINISTRATIVE -- Re Thinking out loud'
p534
sg5
g6
sg7
(lp535
g480
asg9
S'./sarahs_inbox/parsed/msnbc/txt/10127.txt'
p536
sg10
g30
sg12
g31
sg32
g231
sba(i__main__
inode
p537
(dp538
g3
S'gov.sarah@yahoo.com -- Re Thinking out loud'
p539
sg5
g6
sg7
(lp540
g480
asg9
S'./sarahs_inbox/parsed/msnbc/txt/10128.txt'
p541
sg10
g30
sg12
g31
sg32
g237
sba(i__main__
inode
p542
(dp543
g3
S'gov.sarah@yahoo.com -- Re Scheduling'
p544
sg5
g6
sg7
(lp545
g480
asg9
S'./sarahs_inbox/parsed/msnbc/txt/10130.txt'
p546
sg10
g30
sg12
g31
sg32
g248
sba(i__main__
inode
p547
(dp548
g3
S'gov.sarah@yahoo.com -- Re Scheduling'
p549
sg5
g6
sg7
(lp550
g480
asg9
S'./sarahs_inbox/parsed/msnbc/txt/10131.txt'
p551
sg10
g30
sg12
g31
sg32
g254
sba(i__main__
inode
p552
(dp553
g3
S'gov. sarah@yahoo.com -- Re Telephone Calls - Drop Out Students'
p554
sg5
g6
sg7
(lp555
g480
asg9
S'./sarahs_inbox/parsed/msnbc/txt/10132.txt'
p556
sg10
g30
sg12
g31
sg32
g260
sba(i__main__
inode
p557
(dp558
g3
S'gov.sarah@yahoo.com -- Re Welcome to WOW! - News'
p559
sg5
g6
sg7
(lp560
g480
asg9
S'./sarahs_inbox/parsed/msnbc/txt/10133.txt'
p561
sg10
g30
sg12
g31
sg32
S'10133.txt'
p562
sba(i__main__
inode
p563
(dp564
g3
S'Colberg , Talis J (LAW) [/O=SOA/OU=FIRST ADMINISTRATIVE -- Re Welcome to WOW! - News'
p565
sg5
g6
sg7
(lp566
g480
asg9
S'./sarahs_inbox/parsed/msnbc/txt/10134.txt'
p567
sg10
g30
sg12
g31
sg32
S'10134.txt'
p568
sba(i__main__
inode
p569
(dp570
g3
S'Colberg , Talis J (LAW) [/O=SOA/OU=FIRST ADMINISTRATIVE -- Re Welcome to WOW! - News'
p571
sg5
g6
sg7
(lp572
g480
asg9
S'./sarahs_inbox/parsed/msnbc/txt/10135.txt'
p573
sg10
g30
sg12
g31
sg32
S'10135.txt'
p574
sba(i__main__
inode
p575
(dp576
g3
S'gov.sarah@yahoo.com -- Re Present from paulette'
p577
sg5
g6
sg7
(lp578
g480
asg9
S'./sarahs_inbox/parsed/msnbc/txt/10136.txt'
p579
sg10
g30
sg12
g31
sg32
g266
sba(i__main__
inode
p580
(dp581
g3
S'gov.sarah@yahoo.com -- Re Scheduling'
p582
sg5
g6
sg7
(lp583
g480
asg9
S'./sarahs_inbox/parsed/msnbc/txt/10137.txt'
p584
sg10
g30
sg12
g31
sg32
g272
sba(i__main__
inode
p585
(dp586
g3
S'Mason , Janice L (GOV) [/O=SOA/OU=FIRST ADMINISTRATIVE -- Re Scheduling'
p587
sg5
g6
sg7
(lp588
g480
asg9
S'./sarahs_inbox/parsed/msnbc/txt/10139.txt'
p589
sg10
g30
sg12
g31
sg32
g87
sba(i__main__
inode
p590
(dp591
g3
S'Mason, Janice L (GOV) [/O=SOA/OU=FIRST ADMINISTRATIVE -- Re Scheduling'
p592
sg5
g6
sg7
(lp593
g480
asg9
S'./sarahs_inbox/parsed/msnbc/txt/10140.txt'
p594
sg10
g30
sg12
g31
sg32
g99
sba(i__main__
inode
p595
(dp596
g3
S'Mason, Janice L (GOV) [/O=SOA/OU=FIRST ADMINISTRATIVE -- Telephone Calls - Drop Out Students'
p597
sg5
g6
sg7
(lp598
g480
asg9
S'./sarahs_inbox/parsed/msnbc/txt/10142.txt'
p599
sg10
g30
sg12
g31
sg32
g105
sba(i__main__
inode
p600
(dp601
g3
S'Mason , Janice L (GOV) [/O=SOA/OU=FIRST ADMINISTRATIVE -- Scheduling'
p602
sg5
g6
sg7
(lp603
g480
asg9
S'./sarahs_inbox/parsed/msnbc/txt/10143.txt'
p604
sg10
g30
sg12
g31
sg32
g288
sba(i__main__
inode
p605
(dp606
g3
S'Morgan , Katryn L (GOV) [/O=SOA/OU=FIRST ADMINISTRATIVE -- AK Right to Life Remarks'
p607
sg5
g6
sg7
(lp608
g480
asg9
S'./sarahs_inbox/parsed/msnbc/txt/10145.txt'
p609
sg10
g30
sg12
g31
sg32
g300
sba(i__main__
inode
p610
(dp611
g3
S'Morgan, Katryn L (GOV) [/O=SOA/OU=FIRST ADMINISTRATIVE -- AK Right to Life Remarks'
p612
sg5
g6
sg7
(lp613
g480
asg9
S'./sarahs_inbox/parsed/msnbc/txt/10151.txt'
p614
sg10
g30
sg12
g31
sg32
g117
sba(i__main__
inode
p615
(dp616
g3
S'Rutherford, Marty K (DNR) [/O=SOA/OU=FIRST ADMINISTRATIVE -- FW Confirmation of the Novemberl 5th discussion'
p617
sg5
g6
sg7
(lp618
g480
asg9
S'./sarahs_inbox/parsed/msnbc/txt/10152.txt'
p619
sg10
g30
sg12
g31
sg32
g312
sba(i__main__
inode
p620
(dp621
g3
S'gov.sarah@yahoo.com -- Re AK Right to Life Remarks'
p622
sg5
g6
sg7
(lp623
g480
asg9
S'./sarahs_inbox/parsed/msnbc/txt/10154.txt'
p624
sg10
g30
sg12
g31
sg32
S'10154.txt'
p625
sba(i__main__
inode
p626
(dp627
g3
S'Colberg, Tails J (LAW) [/O=SOA/OU=FIRST ADMINISTRATIVE -- Today.'
p628
sg5
g6
sg7
(lp629
g480
asg9
S'./sarahs_inbox/parsed/msnbc/txt/10155.txt'
p630
sg10
g30
sg12
g31
sg32
g123
sba(i__main__
inode
p631
(dp632
g3
S'Fagerstrom, Erika (GOV) [/O=SOA/OU=FIRST ADMINISTRATIVE -- Flights'
p633
sg5
g6
sg7
(lp634
g480
asg9
S'./sarahs_inbox/parsed/msnbc/txt/1016.txt'
p635
sg10
g30
sg12
g31
sg32
g129
sba(i__main__
inode
p636
(dp637
g3
S'gov.sarah@yahoo.com -- Re Bridge DOT bond'
p638
sg5
g6
sg7
(lp639
g480
asg9
S'./sarahs_inbox/parsed/msnbc/txt/10163.txt'
p640
sg10
g30
sg12
g31
sg32
S'10163.txt'
p641
sba(i__main__
inode
p642
(dp643
g3
S'gov.sarah@yahoo.com -- Ktuu'
p644
sg5
g6
sg7
(lp645
g480
asg9
S'./sarahs_inbox/parsed/msnbc/txt/10167.txt'
p646
sg10
g30
sg12
g31
sg32
S'10167.txt'
p647
sba(i__main__
inode
p648
(dp649
g3
S'gov.sarah@yahoo.com -- Re Conoco'
p650
sg5
g6
sg7
(lp651
g480
asg9
S'./sarahs_inbox/parsed/msnbc/txt/10168.txt'
p652
sg10
g30
sg12
g31
sg32
g334
sba(i__main__
inode
p653
(dp654
g3
S'gov.sarah@yahoo.com -- Re Conoco'
p655
sg5
g6
sg7
(lp656
g480
asg9
S'./sarahs_inbox/parsed/msnbc/txt/10169.txt'
p657
sg10
g30
sg12
g31
sg32
g340
sba(i__main__
inode
p658
(dp659
g3
S'gov.sarah@yahoo.com -- Re Scheduling'
p660
sg5
g6
sg7
(lp661
g480
asg9
S'./sarahs_inbox/parsed/msnbc/txt/10171.txt'
p662
sg10
g30
sg12
g31
sg32
g472
sba(i__main__
inode
p663
(dp664
g3
S'PARNELL, S (GOV sponsored) [/O=SOA/OU=FIRST ADMINISTRATIVE -- Re Fagan'
p665
sg5
g6
sg7
(lp666
g480
asg9
S'./sarahs_inbox/parsed/msnbc/txt/10172.txt'
p667
sg10
g30
sg12
g31
sg32
g346
sba(i__main__
inode
p668
(dp669
g3
S'gov.sarah @yahoo.com -- Re Fagan'
p670
sg5
g6
sg7
(lp671
g480
asg9
S'./sarahs_inbox/parsed/msnbc/txt/10173.txt'
p672
sg10
g30
sg12
g31
sg32
g352
sba(i__main__
inode
p673
(dp674
g3
S'PARNELL, S (GOV sponsored) [/O=SOA/OU=FIRST ADMINISTRATIVE -- Re Fagan'
p675
sg5
g6
sg7
(lp676
g480
asg9
S'./sarahs_inbox/parsed/msnbc/txt/10174.txt'
p677
sg10
g30
sg12
g31
sg32
g358
sba(i__main__
inode
p678
(dp679
g3
S'gov.sarah@yahoo.com -- Re Fagan'
p680
sg5
g6
sg7
(lp681
g480
asg9
S'./sarahs_inbox/parsed/msnbc/txt/10175.txt'
p682
sg10
g30
sg12
g31
sg32
g364
sba(i__main__
inode
p683
(dp684
g3
S'PARNELL, S (GOV sponsored) [/O=SOA/OU=FIRST ADMINISTRATIVE -- Re Fagan'
p685
sg5
g6
sg7
(lp686
g480
asg9
S'./sarahs_inbox/parsed/msnbc/txt/10176.txt'
p687
sg10
g30
sg12
g31
sg32
g153
sba(i__main__
inode
p688
(dp689
g3
S'gov.sarah@yahoo.com -- Fagan'
p690
sg5
g6
sg7
(lp691
g480
asg9
S'./sarahs_inbox/parsed/msnbc/txt/10177.txt'
p692
sg10
g30
sg12
g31
sg32
S'10177.txt'
p693
sba(i__main__
inode
p694
(dp695
g3
S'Balash, Joseph R (GOV) [/O=SOA/OU=FIRST ADMINISTRATIVE -- Re Energy pts'
p696
sg5
g6
sg7
(lp697
g480
asg9
S'./sarahs_inbox/parsed/msnbc/txt/10178.txt'
p698
sg10
g30
sg12
g31
sg32
g159
sba(i__main__
inode
p699
(dp700
g3
S'gov.sarah @yahoo.com -- Energy pts'
p701
sg5
g6
sg7
(lp702
g480
asg9
S'./sarahs_inbox/parsed/msnbc/txt/10179.txt'
p703
sg10
g30
sg12
g31
sg32
S'10179.txt'
p704
sba(i__main__
inode
p705
(dp706
g3
S'Perry, Kristina Y (GOV) [kris.perry@alaska.gov] -- Re Philadelphia'
p707
sg5
g6
sg7
(lp708
g480
asg9
S'./sarahs_inbox/parsed/msnbc/txt/1018.txt'
p709
sg10
g30
sg12
g31
sg32
S'1018.txt'
p710
sba(i__main__
inode
p711
(dp712
g3
S'gov.sarah@yahoo.com -- Re School'
p713
sg5
g6
sg7
(lp714
g480
asg9
S'./sarahs_inbox/parsed/msnbc/txt/10180.txt'
p715
sg10
g30
sg12
g31
sg32
g478
sba(i__main__
inode
p716
(dp717
g3
S'gov.sarah@yahoo.com -- Re AEA Director'
p718
sg5
g6
sg7
(lp719
g480
asg9
S'./sarahs_inbox/parsed/msnbc/txt/10181.txt'
p720
sg10
g30
sg12
g31
sg32
g370
sba(i__main__
inode
p721
(dp722
g3
S'gov.sarah@yahoo.com -- Re AK Right to Life Remarks'
p723
sg5
g6
sg7
(lp724
g480
asg9
S'./sarahs_inbox/parsed/msnbc/txt/10182.txt'
p725
sg10
g30
sg12
g31
sg32
S'10182.txt'
p726
sba(i__main__
inode
p727
(dp728
g3
S'gov.sarah@yahoo.com -- AEA Director'
p729
sg5
g6
sg7
(lp730
g480
asg9
S'./sarahs_inbox/parsed/msnbc/txt/10185.txt'
p731
sg10
g30
sg12
g31
sg32
g388
sba(i__main__
inode
p732
(dp733
g3
S'gov.sarah@yahoo.com -- Fw AEA tomorrow'
p734
sg5
g6
sg7
(lp735
g480
asg9
S'./sarahs_inbox/parsed/msnbc/txt/10187.txt'
p736
sg10
g30
sg12
g31
sg32
S'10187.txt'
p737
sbasg32
S'Topic: 6'
p738
sba(i__main__
inode
p739
(dp740
g3
S'contract, sep, state, told, pra, valley, prayer, service, said, dan'
p741
sg5
g6
sg7
(lp742
g14
asg9
g4
sg10
g23
sg12
(lp743
(i__main__
inode
p744
(dp745
g3
S'Fagerstrom, Erika (GOV) [/O=SOA/OU=FIRST ADMINISTRATIVE -- Water Pipe Replacement Cost'
p746
sg5
g6
sg7
(lp747
g739
asg9
S'./sarahs_inbox/parsed/msnbc/txt/1000.txt'
p748
sg10
g30
sg12
g31
sg32
S'1000.txt'
p749
sba(i__main__
inode
p750
(dp751
g3
S'Fagerstrom, Erika (GOV) [erika.fagerstrom@alaska.gov] -- Flight Information Friday, March 28th Travel Jnu-Anc. Fit. 67'
p752
sg5
g6
sg7
(lp753
g739
asg9
S'./sarahs_inbox/parsed/msnbc/txt/1004.txt'
p754
sg10
g30
sg12
g31
sg32
S'1004.txt'
p755
sba(i__main__
inode
p756
(dp757
g3
S'gov.sarah@yahoo.com -- Re School'
p758
sg5
g6
sg7
(lp759
g739
asg9
S'./sarahs_inbox/parsed/msnbc/txt/10180.txt'
p760
sg10
g30
sg12
g31
sg32
g478
sbasg32
S'Topic: 7'
p761
sba(i__main__
inode
p762
(dp763
g3
S'gas, alaska, oil, state, pipeline, agia, project, company, said, governor'
p764
sg5
g6
sg7
(lp765
g14
asg9
g4
sg10
g23
sg12
(lp766
(i__main__
inode
p767
(dp768
g3
S'Mason , Janice L (GOV) [/O=SOA/OU=FIRST ADMINISTRATIVE -- Scheduling'
p769
sg5
g6
sg7
(lp770
g762
asg9
S'./sarahs_inbox/parsed/msnbc/txt/10143.txt'
p771
sg10
g30
sg12
g31
sg32
g288
sba(i__main__
inode
p772
(dp773
g3
S'Leschper, Beth (GOV) [beth.leschper@alaska.gov] -- updated talking points'
p774
sg5
g6
sg7
(lp775
g762
asg9
S'./sarahs_inbox/parsed/msnbc/txt/10146.txt'
p776
sg10
g30
sg12
g31
sg32
S'10146.txt'
p777
sba(i__main__
inode
p778
(dp779
g3
S'Governor Sarah Palin (GOV sponsored) [governor@ alaska.gov] -- Voices Across Alaska State Budget Priorities'
p780
sg5
g6
sg7
(lp781
g762
asg9
S'./sarahs_inbox/parsed/msnbc/txt/10148.txt'
p782
sg10
g30
sg12
g31
sg32
S'10148.txt'
p783
sba(i__main__
inode
p784
(dp785
g3
S'Frye, Ivy J (DOA) [/O=SOA/OU=FIRST ADMINISTRATIVE GROUP/CN=RECIPIENTS/CN=IJFRYE] -- great letter to the editor from Phil Schneider'
p786
sg5
g6
sg7
(lp787
g762
asg9
S'./sarahs_inbox/parsed/msnbc/txt/10156.txt'
p788
sg10
g30
sg12
g31
sg32
S'10156.txt'
p789
sba(i__main__
inode
p790
(dp791
g3
S'gov.sarah@yahoo.com -- Re Conoco'
p792
sg5
g6
sg7
(lp793
g762
asg9
S'./sarahs_inbox/parsed/msnbc/txt/10168.txt'
p794
sg10
g30
sg12
g31
sg32
g334
sba(i__main__
inode
p795
(dp796
g3
S'gov.sarah@yahoo.com -- Re Conoco'
p797
sg5
g6
sg7
(lp798
g762
asg9
S'./sarahs_inbox/parsed/msnbc/txt/10169.txt'
p799
sg10
g30
sg12
g31
sg32
g340
sba(i__main__
inode
p800
(dp801
g3
S'gov.sarah@yahoo.com -- Re Conoco'
p802
sg5
g6
sg7
(lp803
g762
asg9
S'./sarahs_inbox/parsed/msnbc/txt/10183.txt'
p804
sg10
g30
sg12
g31
sg32
g376
sba(i__main__
inode
p805
(dp806
g3
S'Frye, Ivy J (DOA) [/O=SOA/OU=FIRST ADMINISTRATIVE -- Fw Conoco'
p807
sg5
g6
sg7
(lp808
g762
asg9
S'./sarahs_inbox/parsed/msnbc/txt/10186.txt'
p809
sg10
g30
sg12
g31
sg32
g394
sbasg32
S'Topic: 8'
p810
sba(i__main__
inode
p811
(dp812
g3
S'gov, privileged, personal, material, redacted, sharon, alaska, pra, leighow, sent'
p813
sg5
g6
sg7
(lp814
g14
asg9
g4
sg10
g23
sg12
(lp815
(i__main__
inode
p816
(dp817
g3
S'gov.sarah@yahoo.com -- Re PSA with Todd'
p818
sg5
g6
sg7
(lp819
g811
asg9
S'./sarahs_inbox/parsed/msnbc/txt/10109.txt'
p820
sg10
g30
sg12
g31
sg32
g51
sba(i__main__
inode
p821
(dp822
g3
S'Sarah Palin [gov.sarah@yahoo.com] -- Re AK Right to Life Remarks'
p823
sg5
g6
sg7
(lp824
g811
asg9
S'./sarahs_inbox/parsed/msnbc/txt/10120.txt'
p825
sg10
g30
sg12
g31
sg32
g525
sba(i__main__
inode
p826
(dp827
g3
S'gov.sarah@yahoo.com -- Re Welcome to WOW! - News'
p828
sg5
g6
sg7
(lp829
g811
asg9
S'./sarahs_inbox/parsed/msnbc/txt/10122.txt'
p830
sg10
g30
sg12
g31
sg32
S'10122.txt'
p831
sba(i__main__
inode
p832
(dp833
g3
S'Colberg, Talis J (LAW) [/O=SOA/OU=FIRST ADMINISTRATIVE -- Re Welcome to WOW! - News'
p834
sg5
g6
sg7
(lp835
g811
asg9
S'./sarahs_inbox/parsed/msnbc/txt/10123.txt'
p836
sg10
g30
sg12
g31
sg32
S'10123.txt'
p837
sba(i__main__
inode
p838
(dp839
g3
S'gov.sarah @yahoo.com -- Fw Welcome to WOW! - News'
p840
sg5
g6
sg7
(lp841
g811
asg9
S'./sarahs_inbox/parsed/msnbc/txt/10124.txt'
p842
sg10
g30
sg12
g31
sg32
S'10124.txt'
p843
sba(i__main__
inode
p844
(dp845
g3
S'PARNELL, S (GOV sponsored) [/O=SOA/OU=FIRST ADMINISTRATIVE -- Re Thinking out loud'
p846
sg5
g6
sg7
(lp847
g811
asg9
S'./sarahs_inbox/parsed/msnbc/txt/10127.txt'
p848
sg10
g30
sg12
g31
sg32
g231
sba(i__main__
inode
p849
(dp850
g3
S'gov.sarah@yahoo.com -- Re Welcome to WOW! - News'
p851
sg5
g6
sg7
(lp852
g811
asg9
S'./sarahs_inbox/parsed/msnbc/txt/10133.txt'
p853
sg10
g30
sg12
g31
sg32
g562
sba(i__main__
inode
p854
(dp855
g3
S'Colberg , Talis J (LAW) [/O=SOA/OU=FIRST ADMINISTRATIVE -- Re Welcome to WOW! - News'
p856
sg5
g6
sg7
(lp857
g811
asg9
S'./sarahs_inbox/parsed/msnbc/txt/10134.txt'
p858
sg10
g30
sg12
g31
sg32
g568
sba(i__main__
inode
p859
(dp860
g3
S'Colberg , Talis J (LAW) [/O=SOA/OU=FIRST ADMINISTRATIVE -- Re Welcome to WOW! - News'
p861
sg5
g6
sg7
(lp862
g811
asg9
S'./sarahs_inbox/parsed/msnbc/txt/10135.txt'
p863
sg10
g30
sg12
g31
sg32
g574
sba(i__main__
inode
p864
(dp865
g3
S'Morgan , Katryn L (GOV) [/O=SOA/OU=FIRST ADMINISTRATIVE -- AK Right to Life Remarks'
p866
sg5
g6
sg7
(lp867
g811
asg9
S'./sarahs_inbox/parsed/msnbc/txt/10145.txt'
p868
sg10
g30
sg12
g31
sg32
g300
sba(i__main__
inode
p869
(dp870
g3
S'Jackson, Karleen K (HSS) [karleen.jackson@aiaska.gov] -- RE Governors Budget Priorities Web Survey'
p871
sg5
g6
sg7
(lp872
g811
asg9
S'./sarahs_inbox/parsed/msnbc/txt/;10147.txt'
p873
sg10
g30
sg12
g31
sg32
S';10147.txt'
p874
sba(i__main__
inode
p875
(dp876
g3
S"Palin, Sarah (GOV sponsored ) [govpalin@alaska.gov] -- Re Murph O'brien"
p877
sg5
g6
sg7
(lp878
g811
asg9
S'./sarahs_inbox/parsed/msnbc/txt/10170.txt'
p879
sg10
g30
sg12
g31
sg32
S'10170.txt'
p880
sbasg32
S'Topic: 9'
p881
sba(i__main__
inode
p882
(dp883
g3
S'budget, project, karen, funding, cut, gov, capital, million, fund, request'
p884
sg5
g6
sg7
(lp885
g14
asg9
g4
sg10
g23
sg12
(lp886
(i__main__
inode
p887
(dp888
g3
S'Palin, Sarah (GOV sponsored) [govpalinalaska.gov] -- Re FYI'
p889
sg5
g6
sg7
(lp890
g882
asg9
S'./sarahs_inbox/parsed/msnbc/txt/10111.txt'
p891
sg10
g30
sg12
g31
sg32
S'10111.txt'
p892
sba(i__main__
inode
p893
(dp894
g3
S'John Katz jwkatz ALASKADC.org] -- Federal Funding/State Budget'
p895
sg5
g6
sg7
(lp896
g882
asg9
S'./sarahs_inbox/parsed/msnbc/txt/10144.txt'
p897
sg10
g30
sg12
g31
sg32
g294
sba(i__main__
inode
p898
(dp899
g3
S'Governor Sarah Palin (GOV sponsored) [governor@ alaska.gov] -- Voices Across Alaska State Budget Priorities'
p900
sg5
g6
sg7
(lp901
g882
asg9
S'./sarahs_inbox/parsed/msnbc/txt/10148.txt'
p902
sg10
g30
sg12
g31
sg32
g783
sba(i__main__
inode
p903
(dp904
g3
S'gov.sarah@yahoo.com -- Re Bridge DOT bond'
p905
sg5
g6
sg7
(lp906
g882
asg9
S'./sarahs_inbox/parsed/msnbc/txt/10163.txt'
p907
sg10
g30
sg12
g31
sg32
g641
sba(i__main__
inode
p908
(dp909
g3
S'Kris Norosz [KrisN@Icic[eSeafoods.com] -- Support for the UAF "fisheries" line item'
p910
sg5
g6
sg7
(lp911
g882
asg9
S'./sarahs_inbox/parsed/msnbc/txt/10166.txt'
p912
sg10
g30
sg12
g31
sg32
S'10166.txt'
p913
sba(i__main__
inode
p914
(dp915
g3
S'Rehfeld, Karen J (GOV) [/O=SOA/OU=FIRST ADMINISTRATIVE -- RE Support for the UAF "fisheries" line item'
p916
sg5
g6
sg7
(lp917
g882
asg9
S'./sarahs_inbox/parsed/msnbc/txt/10188.txt'
p918
sg10
g30
sg12
g31
sg32
S'10188.txt'
p919
sba(i__main__
inode
p920
(dp921
g3
S'Rehfeld, Karen J (GOV) [/O=SOA/OU=FIRST ADMINISTRATIVE -- RE Univ. of Alaska Funding - Fisheries'
p922
sg5
g6
sg7
(lp923
g882
asg9
S'./sarahs_inbox/parsed/msnbc/txt/10189.txt'
p924
sg10
g30
sg12
g31
sg32
S'10189.txt'
p925
sbasg32
S'Topic: 10'
p926
sba(i__main__
inode
p927
(dp928
g3
S'com, http, net, www, rep, laa, state, legis, exct, adn'
p929
sg5
g6
sg7
(lp930
g14
asg9
g4
sg10
g23
sg12
(lp931
(i__main__
inode
p932
(dp933
g3
S"Fagerstrom, Erika (GOV) [erika.fagerstrom@alaska.gov] -- RE FYI- RSVP Spouses' Luncheon Friday, March 28, 2008 1200 to 130pm."
p934
sg5
g6
sg7
(lp935
g927
asg9
S'./sarahs_inbox/parsed/msnbc/txt/;1006.txt'
p936
sg10
g30
sg12
g31
sg32
g45
sba(i__main__
inode
p937
(dp938
g3
S" -- Rep. Olson's Spouse not attending"
p939
sg5
g6
sg7
(lp940
g927
asg9
S'./sarahs_inbox/parsed/msnbc/txt/1008.txt'
p941
sg10
g30
sg12
g31
sg32
S'1008.txt'
p942
sba(i__main__
inode
p943
(dp944
g3
S'Linda Kovac [Ikovac@chugiakcouncil.org] -- Chugiak Community Council Request re Old Glenn Highway Project'
p945
sg5
g6
sg7
(lp946
g927
asg9
S'./sarahs_inbox/parsed/msnbc/txt/10160.txt'
p947
sg10
g30
sg12
g31
sg32
S'10160.txt'
p948
sbasg32
S'Topic: 11'
p949
sba(i__main__
inode
p950
(dp951
g3
S'erika, governor, alaska, roston, todd, house, fagerstrom, juneau, phone, thanks'
p952
sg5
g6
sg7
(lp953
g14
asg9
g4
sg10
g23
sg12
(lp954
(i__main__
inode
p955
(dp956
g3
S'Fagerstrom, Erika (GOV) [/O=SOA/OU=FIRST ADMINISTRATIVE -- Water Pipe Replacement Cost'
p957
sg5
g6
sg7
(lp958
g950
asg9
S'./sarahs_inbox/parsed/msnbc/txt/1000.txt'
p959
sg10
g30
sg12
g31
sg32
g749
sba(i__main__
inode
p960
(dp961
g3
S'Fagerstrom, Erika (GOV) [/O=SOA/OU=FIRST ADMINISTRATIVE -- Travel Fri. 3/28'
p962
sg5
g6
sg7
(lp963
g950
asg9
S'./sarahs_inbox/parsed/msnbc/txt/1002.txt'
p964
sg10
g30
sg12
g31
sg32
g33
sba(i__main__
inode
p965
(dp966
g3
S'Fagerstrom, Erika (GOV) [/O=SOA/OU=FIRST ADMINISTRATIVE -- RE Romer'
p967
sg5
g6
sg7
(lp968
g950
asg9
S'./sarahs_inbox/parsed/msnbc/txt/1003.txt'
p969
sg10
g30
sg12
g31
sg32
g39
sba(i__main__
inode
p970
(dp971
g3
S'Fagerstrom, Erika (GOV) [erika.fagerstrom@alaska.gov] -- Flight Information Friday, March 28th Travel Jnu-Anc. Fit. 67'
p972
sg5
g6
sg7
(lp973
g950
asg9
S'./sarahs_inbox/parsed/msnbc/txt/1004.txt'
p974
sg10
g30
sg12
g31
sg32
g755
sba(i__main__
inode
p975
(dp976
g3
S'Fagerstrom, Erika (GOV) VO=SOA/OU=FIRST ADMINISTRATIVE -- Educ.Comm. Thompson- Request to attend Anchorage Mtg.on "Drop out issue" Fri. 4/18 (10-2pm.)'
p977
sg5
g6
sg7
(lp978
g950
asg9
S'./sarahs_inbox/parsed/msnbc/txt/1005.txt'
p979
sg10
g30
sg12
g31
sg32
g436
sba(i__main__
inode
p980
(dp981
g3
S"Fagerstrom, Erika (GOV) [erika.fagerstrom@alaska.gov] -- RE FYI- RSVP Spouses' Luncheon Friday, March 28, 2008 1200 to 130pm."
p982
sg5
g6
sg7
(lp983
g950
asg9
S'./sarahs_inbox/parsed/msnbc/txt/;1006.txt'
p984
sg10
g30
sg12
g31
sg32
g45
sba(i__main__
inode
p985
(dp986
g3
S'fek9wnr@yahoo.com -- Re Call'
p987
sg5
g6
sg7
(lp988
g950
asg9
S'./sarahs_inbox/parsed/msnbc/txt/1007.txt'
p989
sg10
g30
sg12
g31
sg32
S'1007.txt'
p990
sba(i__main__
inode
p991
(dp992
g3
S" -- Rep. Olson's Spouse not attending"
p993
sg5
g6
sg7
(lp994
g950
asg9
S'./sarahs_inbox/parsed/msnbc/txt/1008.txt'
p995
sg10
g30
sg12
g31
sg32
g942
sba(i__main__
inode
p996
(dp997
g3
S"Fagerstrom, Erika (GOV) [erika.fagerstrom@alaska.gov] -- Final RSVP List- Spouses' Luncheon 1200-130pm."
p998
sg5
g6
sg7
(lp999
g950
asg9
S'./sarahs_inbox/parsed/msnbc/txt/1010.txt'
p1000
sg10
g30
sg12
g31
sg32
g189
sba(i__main__
inode
p1001
(dp1002
g3
S'Mason , Janice L (GOV) [/O=SOA/OU=FIRST ADMINISTRATIVE -- Luggage'
p1003
sg5
g6
sg7
(lp1004
g950
asg9
S'./sarahs_inbox/parsed/msnbc/txt/10115.txt'
p1005
sg10
g30
sg12
g31
sg32
g63
sba(i__main__
inode
p1006
(dp1007
g3
S'Fagerstrom, Erika (GOV) [/O=SOA/OU=FIRST ADMINISTRATIVE -- Flights'
p1008
sg5
g6
sg7
(lp1009
g950
asg9
S'./sarahs_inbox/parsed/msnbc/txt/1016.txt'
p1010
sg10
g30
sg12
g31
sg32
g129
sba(i__main__
inode
p1011
(dp1012
g3
S'Fagerstrom, Erika (GOV) [/O=SOA/OU=FIRST ADMINISTRATIVE -- Dates are TH 3/3 and F 3/4'
p1013
sg5
g6
sg7
(lp1014
g950
asg9
S'./sarahs_inbox/parsed/msnbc/txt/1017.txt'
p1015
sg10
g30
sg12
g31
sg32
g147
sba(i__main__
inode
p1016
(dp1017
g3
S'Perry, Kristina Y (GOV) [kris.perry@alaska.gov] -- Re Philadelphia'
p1018
sg5
g6
sg7
(lp1019
g950
asg9
S'./sarahs_inbox/parsed/msnbc/txt/1018.txt'
p1020
sg10
g30
sg12
g31
sg32
g710
sbasg32
S'Topic: 12'
p1021
sba(i__main__
inode
p1022
(dp1023
g3
S'yahoo, gov, ivy, com, sarah, frye, palin, unknown, office, state'
p1024
sg5
g6
sg7
(lp1025
g14
asg9
g4
sg10
g23
sg12
(lp1026
(i__main__
inode
p1027
(dp1028
g3
S'fek9wnr@yahoo.com -- Re Call'
p1029
sg5
g6
sg7
(lp1030
g1022
asg9
S'./sarahs_inbox/parsed/msnbc/txt/1007.txt'
p1031
sg10
g30
sg12
g31
sg32
g990
sba(i__main__
inode
p1032
(dp1033
g3
S" -- Rep. Olson's Spouse not attending"
p1034
sg5
g6
sg7
(lp1035
g1022
asg9
S'./sarahs_inbox/parsed/msnbc/txt/1008.txt'
p1036
sg10
g30
sg12
g31
sg32
g942
sba(i__main__
inode
p1037
(dp1038
g3
S'gov.sarah @yahoo.com -- CSI Alaska'
p1039
sg5
g6
sg7
(lp1040
g1022
asg9
S'./sarahs_inbox/parsed/msnbc/txt/10125.txt'
p1041
sg10
g30
sg12
g31
sg32
g531
sba(i__main__
inode
p1042
(dp1043
g3
S'gov.sarah@yahoo.com -- Re Thinking out loud'
p1044
sg5
g6
sg7
(lp1045
g1022
asg9
S'./sarahs_inbox/parsed/msnbc/txt/10128.txt'
p1046
sg10
g30
sg12
g31
sg32
g237
sba(i__main__
inode
p1047
(dp1048
g3
S'frank bailey [ftb907@yahoo.com] -- Le Ear'
p1049
sg5
g6
sg7
(lp1050
g1022
asg9
S'./sarahs_inbox/parsed/msnbc/txt/;1013.txt'
p1051
sg10
g30
sg12
g31
sg32
S';1013.txt'
p1052
sba(i__main__
inode
p1053
(dp1054
g3
S'gov.sarah@yahoo.com -- Re Present from paulette'
p1055
sg5
g6
sg7
(lp1056
g1022
asg9
S'./sarahs_inbox/parsed/msnbc/txt/10136.txt'
p1057
sg10
g30
sg12
g31
sg32
g266
sba(i__main__
inode
p1058
(dp1059
g3
S'Frye, Ivy J (DOA) [/O=SOA/OU=FIRST ADMINISTRATIVE -- Present from paulette'
p1060
sg5
g6
sg7
(lp1061
g1022
asg9
S'./sarahs_inbox/parsed/msnbc/txt/10138.txt'
p1062
sg10
g30
sg12
g31
sg32
g81
sba(i__main__
inode
p1063
(dp1064
g3
S'Frye, Ivy J (DOA) [/O=SOA/OU=FIRST ADMINISTRATIVE -- Fw Psea ads'
p1065
sg5
g6
sg7
(lp1066
g1022
asg9
S'./sarahs_inbox/parsed/msnbc/txt/1014.txt'
p1067
sg10
g30
sg12
g31
sg32
g93
sba(i__main__
inode
p1068
(dp1069
g3
S'Frye, Ivy J (DOA) [/O=SOA/OU=FIRST ADMINISTRATIVE GROUP/CN=RECIPIENTS/CN=IJFRYEI -- FW empire'
p1070
sg5
g6
sg7
(lp1071
g1022
asg9
S'./sarahs_inbox/parsed/msnbc/txt/1015.txt'
p1072
sg10
g30
sg12
g31
sg32
g111
sba(i__main__
inode
p1073
(dp1074
g3
S'Sarah Palin [ gov.sarah @yahoo.com] -- Re Happy Thanksgiving!'
p1075
sg5
g6
sg7
(lp1076
g1022
asg9
S'./sarahs_inbox/parsed/msnbc/txt/10159.txt'
p1077
sg10
g30
sg12
g31
sg32
g318
sba(i__main__
inode
p1078
(dp1079
g3
S'Frye, Ivy J (DOA) [/O=SOA/OU=FIRST ADMINISTRATIVE -- Car trouble'
p1080
sg5
g6
sg7
(lp1081
g1022
asg9
S'./sarahs_inbox/parsed/msnbc/txt/10162.txt'
p1082
sg10
g30
sg12
g31
sg32
g135
sba(i__main__
inode
p1083
(dp1084
g3
S'Frye, Ivy J (DOA) [/O=SOA/OU=FIRST ADMINISTRATIVE -- Re Happy Thanksgiving!'
p1085
sg5
g6
sg7
(lp1086
g1022
asg9
S'./sarahs_inbox/parsed/msnbc/txt/10164.txt'
p1087
sg10
g30
sg12
g31
sg32
g141
sba(i__main__
inode
p1088
(dp1089
g3
S'Fagerstrom, Erika (GOV) [/O=SOA/OU=FIRST ADMINISTRATIVE -- Dates are TH 3/3 and F 3/4'
p1090
sg5
g6
sg7
(lp1091
g1022
asg9
S'./sarahs_inbox/parsed/msnbc/txt/1017.txt'
p1092
sg10
g30
sg12
g31
sg32
g147
sba(i__main__
inode
p1093
(dp1094
g3
S"Palin, Sarah (GOV sponsored ) [govpalin@alaska.gov] -- Re Murph O'brien"
p1095
sg5
g6
sg7
(lp1096
g1022
asg9
S'./sarahs_inbox/parsed/msnbc/txt/10170.txt'
p1097
sg10
g30
sg12
g31
sg32
g880
sbasg32
S'Topic: 13'
p1098
sba(i__main__
inode
p1099
(dp1100
g3
S'law, talis, state, court, email, attorney, page, governor, palin, question'
p1101
sg5
g6
sg7
(lp1102
g14
asg9
g4
sg10
g23
sg12
(lp1103
(i__main__
inode
p1104
(dp1105
g3
S'Frye, Ivy J (DOA) [/O=SOA/OU=FIRST ADMINISTRATIVE -- Fw Cell phone reimbursement'
p1106
sg5
g6
sg7
(lp1107
g1099
asg9
S'./sarahs_inbox/parsed/msnbc/txt/1001.txt'
p1108
sg10
g30
sg12
g31
sg32
g171
sba(i__main__
inode
p1109
(dp1110
g3
S'gov.sarah@yahoo.com -- Re Preparation and roll-out related to filing of lawsuit against Mercer'
p1111
sg5
g6
sg7
(lp1112
g1099
asg9
S'./sarahs_inbox/parsed/msnbc/txt/10112.txt'
p1113
sg10
g30
sg12
g31
sg32
g418
sba(i__main__
inode
p1114
(dp1115
g3
S'Sarah Palin [gov.sarah@yahoo.com] -- Re AK Right to Life Remarks'
p1116
sg5
g6
sg7
(lp1117
g1099
asg9
S'./sarahs_inbox/parsed/msnbc/txt/10120.txt'
p1118
sg10
g30
sg12
g31
sg32
g525
sba(i__main__
inode
p1119
(dp1120
g3
S"Leschper, Beth (GOV) [beth.leschper@alaska.gov] -- Governor's Budget Priorities Web Survey"
p1121
sg5
g6
sg7
(lp1122
g1099
asg9
S'./sarahs_inbox/parsed/msnbc/txt/10121.txt'
p1123
sg10
g30
sg12
g31
sg32
S'10121.txt'
p1124
sba(i__main__
inode
p1125
(dp1126
g3
S'gov.sarah@yahoo.com -- Re Welcome to WOW! - News'
p1127
sg5
g6
sg7
(lp1128
g1099
asg9
S'./sarahs_inbox/parsed/msnbc/txt/10122.txt'
p1129
sg10
g30
sg12
g31
sg32
g831
sba(i__main__
inode
p1130
(dp1131
g3
S'Colberg, Talis J (LAW) [/O=SOA/OU=FIRST ADMINISTRATIVE -- Re Welcome to WOW! - News'
p1132
sg5
g6
sg7
(lp1133
g1099
asg9
S'./sarahs_inbox/parsed/msnbc/txt/10123.txt'
p1134
sg10
g30
sg12
g31
sg32
g837
sba(i__main__
inode
p1135
(dp1136
g3
S'gov.sarah @yahoo.com -- Fw Welcome to WOW! - News'
p1137
sg5
g6
sg7
(lp1138
g1099
asg9
S'./sarahs_inbox/parsed/msnbc/txt/10124.txt'
p1139
sg10
g30
sg12
g31
sg32
g843
sba(i__main__
inode
p1140
(dp1141
g3
S'gov.sarah@yahoo.com -- Re Welcome to WOW! - News'
p1142
sg5
g6
sg7
(lp1143
g1099
asg9
S'./sarahs_inbox/parsed/msnbc/txt/10133.txt'
p1144
sg10
g30
sg12
g31
sg32
g562
sba(i__main__
inode
p1145
(dp1146
g3
S'Colberg , Talis J (LAW) [/O=SOA/OU=FIRST ADMINISTRATIVE -- Re Welcome to WOW! - News'
p1147
sg5
g6
sg7
(lp1148
g1099
asg9
S'./sarahs_inbox/parsed/msnbc/txt/10134.txt'
p1149
sg10
g30
sg12
g31
sg32
g568
sba(i__main__
inode
p1150
(dp1151
g3
S'Colberg , Talis J (LAW) [/O=SOA/OU=FIRST ADMINISTRATIVE -- Re Welcome to WOW! - News'
p1152
sg5
g6
sg7
(lp1153
g1099
asg9
S'./sarahs_inbox/parsed/msnbc/txt/10135.txt'
p1154
sg10
g30
sg12
g31
sg32
g574
sba(i__main__
inode
p1155
(dp1156
g3
S'PARNELL, S (GOV sponsored) [/O=SOA/OU=FIRST ADMINISTRATIVE -- Kenai River Regs'
p1157
sg5
g6
sg7
(lp1158
g1099
asg9
S'./sarahs_inbox/parsed/msnbc/txt/10141.txt'
p1159
sg10
g30
sg12
g31
sg32
S'10141.txt'
p1160
sba(i__main__
inode
p1161
(dp1162
g3
S'Morgan, Katryn L (GOV) [/O=SOA/OU=FIRST ADMINISTRATIVE -- AK Right to Life Remarks'
p1163
sg5
g6
sg7
(lp1164
g1099
asg9
S'./sarahs_inbox/parsed/msnbc/txt/10151.txt'
p1165
sg10
g30
sg12
g31
sg32
g117
sba(i__main__
inode
p1166
(dp1167
g3
S'gov.sarah@yahoo.com -- Re AK Right to Life Remarks'
p1168
sg5
g6
sg7
(lp1169
g1099
asg9
S'./sarahs_inbox/parsed/msnbc/txt/10154.txt'
p1170
sg10
g30
sg12
g31
sg32
g625
sba(i__main__
inode
p1171
(dp1172
g3
S'Colberg, Tails J (LAW) [/O=SOA/OU=FIRST ADMINISTRATIVE -- Today.'
p1173
sg5
g6
sg7
(lp1174
g1099
asg9
S'./sarahs_inbox/parsed/msnbc/txt/10155.txt'
p1175
sg10
g30
sg12
g31
sg32
g123
sba(i__main__
inode
p1176
(dp1177
g3
S'gov.sarah@yahoo.com -- Re Ethics training lacks a final test'
p1178
sg5
g6
sg7
(lp1179
g1099
asg9
S'./sarahs_inbox/parsed/msnbc/txt/10161.txt'
p1180
sg10
g30
sg12
g31
sg32
S'10161.txt'
p1181
sba(i__main__
inode
p1182
(dp1183
g3
S'Kreitzer, Annette E (DOA) [/O=SOA/OU=FIRST ADMINISTRATIVE -- FW Ethics training lacks a final test'
p1184
sg5
g6
sg7
(lp1185
g1099
asg9
S'./sarahs_inbox/parsed/msnbc/txt/10165.txt'
p1186
sg10
g30
sg12
g31
sg32
S'10165.txt'
p1187
sba(i__main__
inode
p1188
(dp1189
g3
S'gov.sarah@yahoo.com -- Re AK Right to Life Remarks'
p1190
sg5
g6
sg7
(lp1191
g1099
asg9
S'./sarahs_inbox/parsed/msnbc/txt/10182.txt'
p1192
sg10
g30
sg12
g31
sg32
g726
sbasg32
S'Topic: 14'
p1193
sba(i__main__
inode
p1194
(dp1195
g3
S'state, alaska, year, public, land, would, department, area, people, trooper'
p1196
sg5
g6
sg7
(lp1197
g14
asg9
g4
sg10
g23
sg12
(lp1198
(i__main__
inode
p1199
(dp1200
g3
S'Frye, Ivy J (DOA) [/O=SOA/OU=FIRST ADMINISTRATIVE -- Re Fwd Support PR Campaign from Trooper President'
p1201
sg5
g6
sg7
(lp1202
g1194
asg9
S'./sarahs_inbox/parsed/msnbc/txt/1011.txt'
p1203
sg10
g30
sg12
g31
sg32
g195
sba(i__main__
inode
p1204
(dp1205
g3
S'Palin, Sarah (GOV sponsored) [govpalinalaska.gov] -- Re FYI'
p1206
sg5
g6
sg7
(lp1207
g1194
asg9
S'./sarahs_inbox/parsed/msnbc/txt/10111.txt'
p1208
sg10
g30
sg12
g31
sg32
g892
sba(i__main__
inode
p1209
(dp1210
g3
S'Mason , Janice L (GOV) [/O=SOA/OU=FIRST ADMINISTRATIVE -- Luggage'
p1211
sg5
g6
sg7
(lp1212
g1194
asg9
S'./sarahs_inbox/parsed/msnbc/txt/10119.txt'
p1213
sg10
g30
sg12
g31
sg32
g177
sba(i__main__
inode
p1214
(dp1215
g3
S'ftb907@yahoo.com -- Re Fwd Support PR Campaign from Trooper President'
p1216
sg5
g6
sg7
(lp1217
g1194
asg9
S'./sarahs_inbox/parsed/msnbc/txt/1012.txt'
p1218
sg10
g30
sg12
g31
sg32
g225
sba(i__main__
inode
p1219
(dp1220
g3
S'gov.sarah @yahoo.com -- CSI Alaska'
p1221
sg5
g6
sg7
(lp1222
g1194
asg9
S'./sarahs_inbox/parsed/msnbc/txt/10125.txt'
p1223
sg10
g30
sg12
g31
sg32
g531
sba(i__main__
inode
p1224
(dp1225
g3
S'Governor Sarah Palin (GOV sponsored) [govemor@alaska.gov] -- RE Other'
p1226
sg5
g6
sg7
(lp1227
g1194
asg9
S'./sarahs_inbox/parsed/msnbc/txt/10126.txt'
p1228
sg10
g30
sg12
g31
sg32
g424
sba(i__main__
inode
p1229
(dp1230
g3
S'PARNELL, S (GOV sponsored) [/O=SOA/OU=FIRST ADMINISTRATIVE -- Kenai River Regs'
p1231
sg5
g6
sg7
(lp1232
g1194
asg9
S'./sarahs_inbox/parsed/msnbc/txt/10141.txt'
p1233
sg10
g30
sg12
g31
sg32
g1160
sba(i__main__
inode
p1234
(dp1235
g3
S'Von Scheben, Leo (DOT) [/O=SOA/OU=FIRST ADMINISTRATIVE -- FW Aleknagik'
p1236
sg5
g6
sg7
(lp1237
g1194
asg9
S'./sarahs_inbox/parsed/msnbc/txt/10150.txt'
p1238
sg10
g30
sg12
g31
sg32
S'10150.txt'
p1239
sba(i__main__
inode
p1240
(dp1241
g3
S'gov.sarah@yahoo.com -- Re Bridge DOT bond'
p1242
sg5
g6
sg7
(lp1243
g1194
asg9
S'./sarahs_inbox/parsed/msnbc/txt/10163.txt'
p1244
sg10
g30
sg12
g31
sg32
g641
sbasg32
S'Topic: 15'
p1245
sba(i__main__
inode
p1246
(dp1247
g3
S'gov, alaska, nizich, talis, mike, colberg, michael, john, sean, sponsored'
p1248
sg5
g6
sg7
(lp1249
g14
asg9
g4
sg10
g23
sg12
(lp1250
(i__main__
inode
p1251
(dp1252
g3
S"Leschper, Beth (GOV) [beth.leschper@alaska.gov] -- Governor's Budget Priorities Web Survey"
p1253
sg5
g6
sg7
(lp1254
g1246
asg9
S'./sarahs_inbox/parsed/msnbc/txt/10121.txt'
p1255
sg10
g30
sg12
g31
sg32
g1124
sba(i__main__
inode
p1256
(dp1257
g3
S'PARNELL, S (GOV sponsored) [/O=SOA/OU=FIRST ADMINISTRATIVE -- Thinking out loud'
p1258
sg5
g6
sg7
(lp1259
g1246
asg9
S'./sarahs_inbox/parsed/msnbc/txt/10129.txt'
p1260
sg10
g30
sg12
g31
sg32
g75
sba(i__main__
inode
p1261
(dp1262
g3
S'Jackson, Karleen K (HSS) [karleen.jackson@aiaska.gov] -- RE Governors Budget Priorities Web Survey'
p1263
sg5
g6
sg7
(lp1264
g1246
asg9
S'./sarahs_inbox/parsed/msnbc/txt/;10147.txt'
p1265
sg10
g30
sg12
g31
sg32
g874
sba(i__main__
inode
p1266
(dp1267
g3
S"Lloyd, Denby S (DFG) [/O=SOA/OU=FIRST ADMINISTRATIVE -- RE Governor's Budget Priorities Web Survey"
p1268
sg5
g6
sg7
(lp1269
g1246
asg9
S'./sarahs_inbox/parsed/msnbc/txt/10153.txt'
p1270
sg10
g30
sg12
g31
sg32
S'10153.txt'
p1271
sba(i__main__
inode
p1272
(dp1273
g3
S'gov.sarah@yahoo.com -- Re Scheduling'
p1274
sg5
g6
sg7
(lp1275
g1246
asg9
S'./sarahs_inbox/parsed/msnbc/txt/10171.txt'
p1276
sg10
g30
sg12
g31
sg32
g472
sbasg32
S'Topic: 16'
p1277
sba(i__main__
inode
p1278
(dp1279
g3
S'alaska, school, state, program, education, student, www, information, year, award'
p1280
sg5
g6
sg7
(lp1281
g14
asg9
g4
sg10
g23
sg12
(lp1282
(i__main__
inode
p1283
(dp1284
g3
S'Bailey, Frank T (GOV) [/O=SOA/OU=FIRST ADMINISTRATIVE -- FW Correction PR 08-044a Governor Palin Appoints to Suicide Prevention Council 032708'
p1285
sg5
g6
sg7
(lp1286
g1278
asg9
S'./sarahs_inbox/parsed/msnbc/txt/1009.txt'
p1287
sg10
g30
sg12
g31
sg32
S'1009.txt'
p1288
sba(i__main__
inode
p1289
(dp1290
g3
S'Mason , Janice L (GOV) [/O=SOA/OU=FIRST ADMINISTRATIVE -- RE Military_and_VeteransAffairs'
p1291
sg5
g6
sg7
(lp1292
g1278
asg9
S'./sarahs_inbox/parsed/msnbc/txt/10114.txt'
p1293
sg10
g30
sg12
g31
sg32
g207
sba(i__main__
inode
p1294
(dp1295
g3
S"Leschper, Beth (GOV) [beth.leschper@alaska.gov] -- Governor's Budget Priorities Web Survey"
p1296
sg5
g6
sg7
(lp1297
g1278
asg9
S'./sarahs_inbox/parsed/msnbc/txt/10121.txt'
p1298
sg10
g30
sg12
g31
sg32
g1124
sba(i__main__
inode
p1299
(dp1300
g3
S'gov. sarah@yahoo.com -- Re Telephone Calls - Drop Out Students'
p1301
sg5
g6
sg7
(lp1302
g1278
asg9
S'./sarahs_inbox/parsed/msnbc/txt/10132.txt'
p1303
sg10
g30
sg12
g31
sg32
g260
sba(i__main__
inode
p1304
(dp1305
g3
S'Mason, Janice L (GOV) [/O=SOA/OU=FIRST ADMINISTRATIVE -- Telephone Calls - Drop Out Students'
p1306
sg5
g6
sg7
(lp1307
g1278
asg9
S'./sarahs_inbox/parsed/msnbc/txt/10142.txt'
p1308
sg10
g30
sg12
g31
sg32
g105
sba(i__main__
inode
p1309
(dp1310
g3
S'Leschper, Beth (GOV) [beth.leschper@alaska.gov] -- updated talking points'
p1311
sg5
g6
sg7
(lp1312
g1278
asg9
S'./sarahs_inbox/parsed/msnbc/txt/10146.txt'
p1313
sg10
g30
sg12
g31
sg32
g777
sba(i__main__
inode
p1314
(dp1315
g3
S'Jackson, Karleen K (HSS) [karleen.jackson@aiaska.gov] -- RE Governors Budget Priorities Web Survey'
p1316
sg5
g6
sg7
(lp1317
g1278
asg9
S'./sarahs_inbox/parsed/msnbc/txt/;10147.txt'
p1318
sg10
g30
sg12
g31
sg32
g874
sba(i__main__
inode
p1319
(dp1320
g3
S'Governor Sarah Palin (GOV sponsored) [governor@ alaska.gov] -- Voices Across Alaska State Budget Priorities'
p1321
sg5
g6
sg7
(lp1322
g1278
asg9
S'./sarahs_inbox/parsed/msnbc/txt/10148.txt'
p1323
sg10
g30
sg12
g31
sg32
g783
sba(i__main__
inode
p1324
(dp1325
g3
S'gov.sarah@yahoo.com -- Re Ethics training lacks a final test'
p1326
sg5
g6
sg7
(lp1327
g1278
asg9
S'./sarahs_inbox/parsed/msnbc/txt/10161.txt'
p1328
sg10
g30
sg12
g31
sg32
g1181
sba(i__main__
inode
p1329
(dp1330
g3
S'Kreitzer, Annette E (DOA) [/O=SOA/OU=FIRST ADMINISTRATIVE -- FW Ethics training lacks a final test'
p1331
sg5
g6
sg7
(lp1332
g1278
asg9
S'./sarahs_inbox/parsed/msnbc/txt/10165.txt'
p1333
sg10
g30
sg12
g31
sg32
g1187
sba(i__main__
inode
p1334
(dp1335
g3
S'Kris Norosz [KrisN@Icic[eSeafoods.com] -- Support for the UAF "fisheries" line item'
p1336
sg5
g6
sg7
(lp1337
g1278
asg9
S'./sarahs_inbox/parsed/msnbc/txt/10166.txt'
p1338
sg10
g30
sg12
g31
sg32
g913
sba(i__main__
inode
p1339
(dp1340
g3
S'Rehfeld, Karen J (GOV) [/O=SOA/OU=FIRST ADMINISTRATIVE -- RE Support for the UAF "fisheries" line item'
p1341
sg5
g6
sg7
(lp1342
g1278
asg9
S'./sarahs_inbox/parsed/msnbc/txt/10188.txt'
p1343
sg10
g30
sg12
g31
sg32
g919
sba(i__main__
inode
p1344
(dp1345
g3
S'Rehfeld, Karen J (GOV) [/O=SOA/OU=FIRST ADMINISTRATIVE -- RE Univ. of Alaska Funding - Fisheries'
p1346
sg5
g6
sg7
(lp1347
g1278
asg9
S'./sarahs_inbox/parsed/msnbc/txt/10189.txt'
p1348
sg10
g30
sg12
g31
sg32
g925
sbasg32
S'Topic: 17'
p1349
sba(i__main__
inode
p1350
(dp1351
g3
S'org, email, gov, alaskadc, john, address, state, jwkatz, katz, tibbles'
p1352
sg5
g6
sg7
(lp1353
g14
asg9
g4
sg10
g23
sg12
(lp1354
(i__main__
inode
p1355
(dp1356
g3
S'John Katz jwkatz ALASKADC.org] -- Federal Funding/State Budget'
p1357
sg5
g6
sg7
(lp1358
g1350
asg9
S'./sarahs_inbox/parsed/msnbc/txt/10144.txt'
p1359
sg10
g30
sg12
g31
sg32
g294
sba(i__main__
inode
p1360
(dp1361
g3
S'gov.sarah@yahoo.com -- Fw AEA tomorrow'
p1362
sg5
g6
sg7
(lp1363
g1350
asg9
S'./sarahs_inbox/parsed/msnbc/txt/10187.txt'
p1364
sg10
g30
sg12
g31
sg32
g737
sbasg32
S'Topic: 18'
p1365
sba(i__main__
inode
p1366
(dp1367
g3
S'business, waste, million, company, market, energy, page, new, climate, change'
p1368
sg5
g6
sg7
(lp1369
g14
asg9
g4
sg10
g23
sg12
(lp1370
(i__main__
inode
p1371
(dp1372
g3
S'Von Scheben, Leo (DOT) [/O=SOA/OU=FIRST ADMINISTRATIVE -- FW Aleknagik'
p1373
sg5
g6
sg7
(lp1374
g1366
asg9
S'./sarahs_inbox/parsed/msnbc/txt/10150.txt'
p1375
sg10
g30
sg12
g31
sg32
g1239
sba(i__main__
inode
p1376
(dp1377
g3
S'Leschper, Beth (GOV) [beth.Ieschper@alaska.gov] -- Remarks for AEA Railbelt Conf'
p1378
sg5
g6
sg7
(lp1379
g1366
asg9
S'./sarahs_inbox/parsed/msnbc/txt/10157.txt'
p1380
sg10
g30
sg12
g31
sg32
S'10157.txt'
p1381
sbasg32
S'Topic: 19'
p1382
sba(i__main__
inode
p1383
(dp1384
g3
S'issue, pra, one, know, sent, call, asked, said, need, letter'
p1385
sg5
g6
sg7
(lp1386
g14
asg9
g4
sg10
g23
sg12
(lp1387
(i__main__
inode
p1388
(dp1389
g3
S'Frye, Ivy J (DOA) [/O=SOA/OU=FIRST ADMINISTRATIVE -- Fw Psea ads'
p1390
sg5
g6
sg7
(lp1391
g1383
asg9
S'./sarahs_inbox/parsed/msnbc/txt/1014.txt'
p1392
sg10
g30
sg12
g31
sg32
g93
sba(i__main__
inode
p1393
(dp1394
g3
S'Frye, Ivy J (DOA) [/O=SOA/OU=FIRST ADMINISTRATIVE GROUP/CN=RECIPIENTS/CN=IJFRYEI -- FW empire'
p1395
sg5
g6
sg7
(lp1396
g1383
asg9
S'./sarahs_inbox/parsed/msnbc/txt/1015.txt'
p1397
sg10
g30
sg12
g31
sg32
g111
sba(i__main__
inode
p1398
(dp1399
g3
S'gov.sarah@yahoo.com -- Re Ethics training lacks a final test'
p1400
sg5
g6
sg7
(lp1401
g1383
asg9
S'./sarahs_inbox/parsed/msnbc/txt/10161.txt'
p1402
sg10
g30
sg12
g31
sg32
g1181
sba(i__main__
inode
p1403
(dp1404
g3
S'Kreitzer, Annette E (DOA) [/O=SOA/OU=FIRST ADMINISTRATIVE -- FW Ethics training lacks a final test'
p1405
sg5
g6
sg7
(lp1406
g1383
asg9
S'./sarahs_inbox/parsed/msnbc/txt/10165.txt'
p1407
sg10
g30
sg12
g31
sg32
g1187
sba(i__main__
inode
p1408
(dp1409
g3
S'gov.sarah@yahoo.com -- Ktuu'
p1410
sg5
g6
sg7
(lp1411
g1383
asg9
S'./sarahs_inbox/parsed/msnbc/txt/10167.txt'
p1412
sg10
g30
sg12
g31
sg32
g647
sba(i__main__
inode
p1413
(dp1414
g3
S'PARNELL, S (GOV sponsored) [/O=SOA/OU=FIRST ADMINISTRATIVE -- Re Fagan'
p1415
sg5
g6
sg7
(lp1416
g1383
asg9
S'./sarahs_inbox/parsed/msnbc/txt/10172.txt'
p1417
sg10
g30
sg12
g31
sg32
g346
sba(i__main__
inode
p1418
(dp1419
g3
S'gov.sarah @yahoo.com -- Re Fagan'
p1420
sg5
g6
sg7
(lp1421
g1383
asg9
S'./sarahs_inbox/parsed/msnbc/txt/10173.txt'
p1422
sg10
g30
sg12
g31
sg32
g352
sba(i__main__
inode
p1423
(dp1424
g3
S'PARNELL, S (GOV sponsored) [/O=SOA/OU=FIRST ADMINISTRATIVE -- Re Fagan'
p1425
sg5
g6
sg7
(lp1426
g1383
asg9
S'./sarahs_inbox/parsed/msnbc/txt/10174.txt'
p1427
sg10
g30
sg12
g31
sg32
g358
sba(i__main__
inode
p1428
(dp1429
g3
S'gov.sarah@yahoo.com -- Re Fagan'
p1430
sg5
g6
sg7
(lp1431
g1383
asg9
S'./sarahs_inbox/parsed/msnbc/txt/10175.txt'
p1432
sg10
g30
sg12
g31
sg32
g364
sba(i__main__
inode
p1433
(dp1434
g3
S'PARNELL, S (GOV sponsored) [/O=SOA/OU=FIRST ADMINISTRATIVE -- Re Fagan'
p1435
sg5
g6
sg7
(lp1436
g1383
asg9
S'./sarahs_inbox/parsed/msnbc/txt/10176.txt'
p1437
sg10
g30
sg12
g31
sg32
g153
sba(i__main__
inode
p1438
(dp1439
g3
S'gov.sarah@yahoo.com -- Fagan'
p1440
sg5
g6
sg7
(lp1441
g1383
asg9
S'./sarahs_inbox/parsed/msnbc/txt/10177.txt'
p1442
sg10
g30
sg12
g31
sg32
g693
sba(i__main__
inode
p1443
(dp1444
g3
S'gov.sarah@yahoo.com -- Re Conoco'
p1445
sg5
g6
sg7
(lp1446
g1383
asg9
S'./sarahs_inbox/parsed/msnbc/txt/10183.txt'
p1447
sg10
g30
sg12
g31
sg32
g376
sba(i__main__
inode
p1448
(dp1449
g3
S'Frye, Ivy J (DOA) [/O=SOA/OU=FIRST ADMINISTRATIVE -- Fw Conoco'
p1450
sg5
g6
sg7
(lp1451
g1383
asg9
S'./sarahs_inbox/parsed/msnbc/txt/10186.txt'
p1452
sg10
g30
sg12
g31
sg32
g394
sba(i__main__
inode
p1453
(dp1454
g3
S'gov.sarah@yahoo.com -- Fw AEA tomorrow'
p1455
sg5
g6
sg7
(lp1456
g1383
asg9
S'./sarahs_inbox/parsed/msnbc/txt/10187.txt'
p1457
sg10
g30
sg12
g31
sg32
g737
sbasg32
S'Topic: 20'
p1458
sba(i__main__
inode
p1459
(dp1460
g3
S'governor, palin, message, alaska, address, sarah, thank, gov, mail, sent'
p1461
sg5
g6
sg7
(lp1462
g14
asg9
g4
sg10
g23
sg12
(lp1463
(i__main__
inode
p1464
(dp1465
g3
S"Governor Sarah Palin (GOV sponsored) [governor@alaska.govj -- FW George Brown's granddaughter"
p1466
sg5
g6
sg7
(lp1467
g1459
asg9
S'./sarahs_inbox/parsed/msnbc/txt/10110.txt'
p1468
sg10
g30
sg12
g31
sg32
g201
sba(i__main__
inode
p1469
(dp1470
g3
S'Mason , Janice L (GOV) I/O=SOA/OU=FIRST ADMINISTRATIVE -- RE Military_and Veterans_Affairs'
p1471
sg5
g6
sg7
(lp1472
g1459
asg9
S'./sarahs_inbox/parsed/msnbc/txt/10113.txt'
p1473
sg10
g30
sg12
g31
sg32
g57
sba(i__main__
inode
p1474
(dp1475
g3
S'Governor Sarah Palin (GOV sponsored) [govemor@alaska.gov] -- RE Other'
p1476
sg5
g6
sg7
(lp1477
g1459
asg9
S'./sarahs_inbox/parsed/msnbc/txt/10126.txt'
p1478
sg10
g30
sg12
g31
sg32
g424
sba(i__main__
inode
p1479
(dp1480
g3
S'Governor Sarah Palin (GOV sponsored) [govemor@alaska.gov] -- RE Health-Care'
p1481
sg5
g6
sg7
(lp1482
g1459
asg9
S'./sarahs_inbox/parsed/msnbc/txt/10149.txt'
p1483
sg10
g30
sg12
g31
sg32
g306
sba(i__main__
inode
p1484
(dp1485
g3
S"Lloyd, Denby S (DFG) [/O=SOA/OU=FIRST ADMINISTRATIVE -- RE Governor's Budget Priorities Web Survey"
p1486
sg5
g6
sg7
(lp1487
g1459
asg9
S'./sarahs_inbox/parsed/msnbc/txt/10153.txt'
p1488
sg10
g30
sg12
g31
sg32
g1271
sba(i__main__
inode
p1489
(dp1490
g3
S'gov.sarah@yahoo.com -- Re AK Right to Life Remarks'
p1491
sg5
g6
sg7
(lp1492
g1459
asg9
S'./sarahs_inbox/parsed/msnbc/txt/10154.txt'
p1493
sg10
g30
sg12
g31
sg32
g625
sba(i__main__
inode
p1494
(dp1495
g3
S'Governor Sarah Palin (GOV sponsored) [governor@alaska.gov] -- RE Military_and_Veterans_Affairs'
p1496
sg5
g6
sg7
(lp1497
g1459
asg9
S'./sarahs_inbox/parsed/msnbc/txt/10158.txt'
p1498
sg10
g30
sg12
g31
sg32
g406
sba(i__main__
inode
p1499
(dp1500
g3
S'Sarah Palin [ gov.sarah @yahoo.com] -- Re Happy Thanksgiving!'
p1501
sg5
g6
sg7
(lp1502
g1459
asg9
S'./sarahs_inbox/parsed/msnbc/txt/10159.txt'
p1503
sg10
g30
sg12
g31
sg32
g318
sba(i__main__
inode
p1504
(dp1505
g3
S'gov.sarah@yahoo.com -- Re AK Right to Life Remarks'
p1506
sg5
g6
sg7
(lp1507
g1459
asg9
S'./sarahs_inbox/parsed/msnbc/txt/10182.txt'
p1508
sg10
g30
sg12
g31
sg32
g726
sba(i__main__
inode
p1509
(dp1510
g3
S'Governor Sarah Palin (GOV sponsored) [governor@alaska.gov] -- RE Health-Care'
p1511
sg5
g6
sg7
(lp1512
g1459
asg9
S'./sarahs_inbox/parsed/msnbc/txt/10184.txt'
p1513
sg10
g30
sg12
g31
sg32
g382
sbasg32
S'Topic: 21'
p1514
sba(i__main__
inode
p1515
(dp1516
g3
S'alaska, fish, game, fishery, state, subsistence, board, hunting, fishing, food'
p1517
sg5
g6
sg7
(lp1518
g14
asg9
g4
sg10
g23
sg12
(lp1519
(i__main__
inode
p1520
(dp1521
g3
S'Bailey, Frank T (GOV) [/O=SOA/OU=FIRST ADMINISTRATIVE -- FW Correction PR 08-044a Governor Palin Appoints to Suicide Prevention Council 032708'
p1522
sg5
g6
sg7
(lp1523
g1515
asg9
S'./sarahs_inbox/parsed/msnbc/txt/1009.txt'
p1524
sg10
g30
sg12
g31
sg32
g1288
sba(i__main__
inode
p1525
(dp1526
g3
S"Fagerstrom, Erika (GOV) [erika.fagerstrom@alaska.gov] -- Final RSVP List- Spouses' Luncheon 1200-130pm."
p1527
sg5
g6
sg7
(lp1528
g1515
asg9
S'./sarahs_inbox/parsed/msnbc/txt/1010.txt'
p1529
sg10
g30
sg12
g31
sg32
g189
sba(i__main__
inode
p1530
(dp1531
g3
S'Kris Norosz [KrisN@Icic[eSeafoods.com] -- Support for the UAF "fisheries" line item'
p1532
sg5
g6
sg7
(lp1533
g1515
asg9
S'./sarahs_inbox/parsed/msnbc/txt/10166.txt'
p1534
sg10
g30
sg12
g31
sg32
g913
sbasg32
S'Topic: 22'
p1535
sba(i__main__
inode
p1536
(dp1537
g3
S'state, alaska, cost, bill, governor, chamber, session, health, benefit, member'
p1538
sg5
g6
sg7
(lp1539
g14
asg9
g4
sg10
g23
sg12
(lp1540
(i__main__
inode
p1541
(dp1542
g3
S'Frye, Ivy J (DOA) [/O=SOA/OU=FIRST ADMINISTRATIVE -- Re Fwd Support PR Campaign from Trooper President'
p1543
sg5
g6
sg7
(lp1544
g1536
asg9
S'./sarahs_inbox/parsed/msnbc/txt/1011.txt'
p1545
sg10
g30
sg12
g31
sg32
g195
sba(i__main__
inode
p1546
(dp1547
g3
S'PARNELL, S (GOV sponsored) [/O=SOA/OU=FIRST ADMINISTRATIVE -- LG Office Budget'
p1548
sg5
g6
sg7
(lp1549
g1536
asg9
S'./sarahs_inbox/parsed/msnbc/txt/10116.txt'
p1550
sg10
g30
sg12
g31
sg32
g213
sba(i__main__
inode
p1551
(dp1552
g3
S'PARNELL, S (GOV sponsored ) [/O=SOA/OU=FIRST ADMINISTRATIVE -- LG Office Budget'
p1553
sg5
g6
sg7
(lp1554
g1536
asg9
S'./sarahs_inbox/parsed/msnbc/txt/10118.txt'
p1555
sg10
g30
sg12
g31
sg32
g219
sba(i__main__
inode
p1556
(dp1557
g3
S'ftb907@yahoo.com -- Re Fwd Support PR Campaign from Trooper President'
p1558
sg5
g6
sg7
(lp1559
g1536
asg9
S'./sarahs_inbox/parsed/msnbc/txt/1012.txt'
p1560
sg10
g30
sg12
g31
sg32
g225
sba(i__main__
inode
p1561
(dp1562
g3
S'Leschper, Beth (GOV) [beth.leschper@alaska.gov] -- updated talking points'
p1563
sg5
g6
sg7
(lp1564
g1536
asg9
S'./sarahs_inbox/parsed/msnbc/txt/10146.txt'
p1565
sg10
g30
sg12
g31
sg32
g777
sba(i__main__
inode
p1566
(dp1567
g3
S'Governor Sarah Palin (GOV sponsored) [govemor@alaska.gov] -- RE Health-Care'
p1568
sg5
g6
sg7
(lp1569
g1536
asg9
S'./sarahs_inbox/parsed/msnbc/txt/10149.txt'
p1570
sg10
g30
sg12
g31
sg32
g306
sba(i__main__
inode
p1571
(dp1572
g3
S'Frye, Ivy J (DOA) [/O=SOA/OU=FIRST ADMINISTRATIVE GROUP/CN=RECIPIENTS/CN=IJFRYE] -- great letter to the editor from Phil Schneider'
p1573
sg5
g6
sg7
(lp1574
g1536
asg9
S'./sarahs_inbox/parsed/msnbc/txt/10156.txt'
p1575
sg10
g30
sg12
g31
sg32
g789
sba(i__main__
inode
p1576
(dp1577
g3
S'Leschper, Beth (GOV) [beth.Ieschper@alaska.gov] -- Remarks for AEA Railbelt Conf'
p1578
sg5
g6
sg7
(lp1579
g1536
asg9
S'./sarahs_inbox/parsed/msnbc/txt/10157.txt'
p1580
sg10
g30
sg12
g31
sg32
g1381
sba(i__main__
inode
p1581
(dp1582
g3
S'Rehfeld, Karen J (GOV) [/O=SOA/OU=FIRST ADMINISTRATIVE -- RE Support for the UAF "fisheries" line item'
p1583
sg5
g6
sg7
(lp1584
g1536
asg9
S'./sarahs_inbox/parsed/msnbc/txt/10188.txt'
p1585
sg10
g30
sg12
g31
sg32
g919
sba(i__main__
inode
p1586
(dp1587
g3
S'Rehfeld, Karen J (GOV) [/O=SOA/OU=FIRST ADMINISTRATIVE -- RE Univ. of Alaska Funding - Fisheries'
p1588
sg5
g6
sg7
(lp1589
g1536
asg9
S'./sarahs_inbox/parsed/msnbc/txt/10189.txt'
p1590
sg10
g30
sg12
g31
sg32
g925
sbasg32
S'Topic: 23'
p1591
sba(i__main__
inode
p1592
(dp1593
g3
S'board, governor, member, page, alaska, director, council, seat, commission, meeting'
p1594
sg5
g6
sg7
(lp1595
g14
asg9
g4
sg10
g23
sg12
(lp1596
(i__main__
inode
p1597
(dp1598
g3
S'Bailey, Frank T (GOV) [/O=SOA/OU=FIRST ADMINISTRATIVE -- FW Correction PR 08-044a Governor Palin Appoints to Suicide Prevention Council 032708'
p1599
sg5
g6
sg7
(lp1600
g1592
asg9
S'./sarahs_inbox/parsed/msnbc/txt/1009.txt'
p1601
sg10
g30
sg12
g31
sg32
g1288
sba(i__main__
inode
p1602
(dp1603
g3
S'Palin, Sarah (GOV sponsored) [govpalinalaska.gov] -- Re FYI'
p1604
sg5
g6
sg7
(lp1605
g1592
asg9
S'./sarahs_inbox/parsed/msnbc/txt/10111.txt'
p1606
sg10
g30
sg12
g31
sg32
g892
sba(i__main__
inode
p1607
(dp1608
g3
S'PARNELL, S (GOV sponsored) [/O=SOA/OU=FIRST ADMINISTRATIVE -- LG Office Budget'
p1609
sg5
g6
sg7
(lp1610
g1592
asg9
S'./sarahs_inbox/parsed/msnbc/txt/10116.txt'
p1611
sg10
g30
sg12
g31
sg32
g213
sba(i__main__
inode
p1612
(dp1613
g3
S'PARNELL, S (GOV sponsored ) [/O=SOA/OU=FIRST ADMINISTRATIVE -- LG Office Budget'
p1614
sg5
g6
sg7
(lp1615
g1592
asg9
S'./sarahs_inbox/parsed/msnbc/txt/10118.txt'
p1616
sg10
g30
sg12
g31
sg32
g219
sba(i__main__
inode
p1617
(dp1618
g3
S'Mason , Janice L (GOV) [/O=SOA/OU=FIRST ADMINISTRATIVE -- Luggage'
p1619
sg5
g6
sg7
(lp1620
g1592
asg9
S'./sarahs_inbox/parsed/msnbc/txt/10119.txt'
p1621
sg10
g30
sg12
g31
sg32
g177
sba(i__main__
inode
p1622
(dp1623
g3
S'Linda Kovac [Ikovac@chugiakcouncil.org] -- Chugiak Community Council Request re Old Glenn Highway Project'
p1624
sg5
g6
sg7
(lp1625
g1592
asg9
S'./sarahs_inbox/parsed/msnbc/txt/10160.txt'
p1626
sg10
g30
sg12
g31
sg32
g948
sba(i__main__
inode
p1627
(dp1628
g3
S'Perry, Kristina Y (GOV) [kris.perry@alaska.gov] -- Re Philadelphia'
p1629
sg5
g6
sg7
(lp1630
g1592
asg9
S'./sarahs_inbox/parsed/msnbc/txt/1018.txt'
p1631
sg10
g30
sg12
g31
sg32
g710
sbasg32
S'Topic: 24'
p1632
sba(i__main__
inode
p1633
(dp1634
g3
S'gov, dnr, marty, rutherford, tom, balash, state, irwin, alaska, galvin'
p1635
sg5
g6
sg7
(lp1636
g14
asg9
g4
sg10
g23
sg12
(lp1637
(i__main__
inode
p1638
(dp1639
g3
S'Rutherford, Marty K (DNR) [/O=SOA/OU=FIRST ADMINISTRATIVE -- FW Confirmation of the Novemberl 5th discussion'
p1640
sg5
g6
sg7
(lp1641
g1633
asg9
S'./sarahs_inbox/parsed/msnbc/txt/10152.txt'
p1642
sg10
g30
sg12
g31
sg32
g312
sba(i__main__
inode
p1643
(dp1644
g3
S"Lloyd, Denby S (DFG) [/O=SOA/OU=FIRST ADMINISTRATIVE -- RE Governor's Budget Priorities Web Survey"
p1645
sg5
g6
sg7
(lp1646
g1633
asg9
S'./sarahs_inbox/parsed/msnbc/txt/10153.txt'
p1647
sg10
g30
sg12
g31
sg32
g1271
sba(i__main__
inode
p1648
(dp1649
g3
S'gov.sarah@yahoo.com -- Ktuu'
p1650
sg5
g6
sg7
(lp1651
g1633
asg9
S'./sarahs_inbox/parsed/msnbc/txt/10167.txt'
p1652
sg10
g30
sg12
g31
sg32
g647
sba(i__main__
inode
p1653
(dp1654
g3
S'Balash, Joseph R (GOV) [/O=SOA/OU=FIRST ADMINISTRATIVE -- Re Energy pts'
p1655
sg5
g6
sg7
(lp1656
g1633
asg9
S'./sarahs_inbox/parsed/msnbc/txt/10178.txt'
p1657
sg10
g30
sg12
g31
sg32
g159
sba(i__main__
inode
p1658
(dp1659
g3
S'gov.sarah @yahoo.com -- Energy pts'
p1660
sg5
g6
sg7
(lp1661
g1633
asg9
S'./sarahs_inbox/parsed/msnbc/txt/10179.txt'
p1662
sg10
g30
sg12
g31
sg32
g704
sba(i__main__
inode
p1663
(dp1664
g3
S'gov.sarah@yahoo.com -- Re AEA Director'
p1665
sg5
g6
sg7
(lp1666
g1633
asg9
S'./sarahs_inbox/parsed/msnbc/txt/10181.txt'
p1667
sg10
g30
sg12
g31
sg32
g370
sba(i__main__
inode
p1668
(dp1669
g3
S'gov.sarah@yahoo.com -- AEA Director'
p1670
sg5
g6
sg7
(lp1671
g1633
asg9
S'./sarahs_inbox/parsed/msnbc/txt/10185.txt'
p1672
sg10
g30
sg12
g31
sg32
g388
sbasg32
S'Topic: 25'
p1673
sba(i__main__
inode
p1674
(dp1675
g3
S'letter, airport, dot, meeting, page, use, goode, would, willow, please'
p1676
sg5
g6
sg7
(lp1677
g14
asg9
g4
sg10
g23
sg12
(lp1678
(i__main__
inode
p1679
(dp1680
g3
S'Fagerstrom, Erika (GOV) [/O=SOA/OU=FIRST ADMINISTRATIVE -- Water Pipe Replacement Cost'
p1681
sg5
g6
sg7
(lp1682
g1674
asg9
S'./sarahs_inbox/parsed/msnbc/txt/1000.txt'
p1683
sg10
g30
sg12
g31
sg32
g749
sba(i__main__
inode
p1684
(dp1685
g3
S'Fagerstrom, Erika (GOV) VO=SOA/OU=FIRST ADMINISTRATIVE -- Educ.Comm. Thompson- Request to attend Anchorage Mtg.on "Drop out issue" Fri. 4/18 (10-2pm.)'
p1686
sg5
g6
sg7
(lp1687
g1674
asg9
S'./sarahs_inbox/parsed/msnbc/txt/1005.txt'
p1688
sg10
g30
sg12
g31
sg32
g436
sba(i__main__
inode
p1689
(dp1690
g3
S'PARNELL, S (GOV sponsored) [/O=SOA/OU=FIRST ADMINISTRATIVE -- Kenai River Regs'
p1691
sg5
g6
sg7
(lp1692
g1674
asg9
S'./sarahs_inbox/parsed/msnbc/txt/10141.txt'
p1693
sg10
g30
sg12
g31
sg32
g1160
sba(i__main__
inode
p1694
(dp1695
g3
S'Von Scheben, Leo (DOT) [/O=SOA/OU=FIRST ADMINISTRATIVE -- FW Aleknagik'
p1696
sg5
g6
sg7
(lp1697
g1674
asg9
S'./sarahs_inbox/parsed/msnbc/txt/10150.txt'
p1698
sg10
g30
sg12
g31
sg32
g1239
sba(i__main__
inode
p1699
(dp1700
g3
S'Linda Kovac [Ikovac@chugiakcouncil.org] -- Chugiak Community Council Request re Old Glenn Highway Project'
p1701
sg5
g6
sg7
(lp1702
g1674
asg9
S'./sarahs_inbox/parsed/msnbc/txt/10160.txt'
p1703
sg10
g30
sg12
g31
sg32
g948
sba(i__main__
inode
p1704
(dp1705
g3
S"Palin, Sarah (GOV sponsored ) [govpalin@alaska.gov] -- Re Murph O'brien"
p1706
sg5
g6
sg7
(lp1707
g1674
asg9
S'./sarahs_inbox/parsed/msnbc/txt/10170.txt'
p1708
sg10
g30
sg12
g31
sg32
g880
sbasg32
S'Topic: 26'
p1709
sba(i__main__
inode
p1710
(dp1711
g3
S'state, mat, maid, dairy, energy, farmer, milk, plan, need, governor'
p1712
sg5
g6
sg7
(lp1713
g14
asg9
g4
sg10
g23
sg12
(lp1714
(i__main__
inode
p1715
(dp1716
g3
S'fek9wnr@yahoo.com -- Re Call'
p1717
sg5
g6
sg7
(lp1718
g1710
asg9
S'./sarahs_inbox/parsed/msnbc/txt/1007.txt'
p1719
sg10
g30
sg12
g31
sg32
g990
sba(i__main__
inode
p1720
(dp1721
g3
S'Frye, Ivy J (DOA) [/O=SOA/OU=FIRST ADMINISTRATIVE GROUP/CN=RECIPIENTS/CN=IJFRYE] -- great letter to the editor from Phil Schneider'
p1722
sg5
g6
sg7
(lp1723
g1710
asg9
S'./sarahs_inbox/parsed/msnbc/txt/10156.txt'
p1724
sg10
g30
sg12
g31
sg32
g789
sba(i__main__
inode
p1725
(dp1726
g3
S'Leschper, Beth (GOV) [beth.Ieschper@alaska.gov] -- Remarks for AEA Railbelt Conf'
p1727
sg5
g6
sg7
(lp1728
g1710
asg9
S'./sarahs_inbox/parsed/msnbc/txt/10157.txt'
p1729
sg10
g30
sg12
g31
sg32
g1381
sba(i__main__
inode
p1730
(dp1731
g3
S'gov.sarah @yahoo.com -- Energy pts'
p1732
sg5
g6
sg7
(lp1733
g1710
asg9
S'./sarahs_inbox/parsed/msnbc/txt/10179.txt'
p1734
sg10
g30
sg12
g31
sg32
g704
sba(i__main__
inode
p1735
(dp1736
g3
S'Governor Sarah Palin (GOV sponsored) [governor@alaska.gov] -- RE Health-Care'
p1737
sg5
g6
sg7
(lp1738
g1710
asg9
S'./sarahs_inbox/parsed/msnbc/txt/10184.txt'
p1739
sg10
g30
sg12
g31
sg32
g382
sbasg32
S'Topic: 27'
p1740
sba(i__main__
inode
p1741
(dp1742
g3
S'meghan, stapleton, kari, spencer, state, com, palin, gov, communication, page'
p1743
sg5
g6
sg7
(lp1744
g14
asg9
g4
sg10
g23
sg12
(lp1745
(i__main__
inode
p1746
(dp1747
g3
S'Fagerstrom, Erika (GOV) [/O=SOA/OU=FIRST ADMINISTRATIVE -- Travel Fri. 3/28'
p1748
sg5
g6
sg7
(lp1749
g1741
asg9
S'./sarahs_inbox/parsed/msnbc/txt/1002.txt'
p1750
sg10
g30
sg12
g31
sg32
g33
sba(i__main__
inode
p1751
(dp1752
g3
S'Fagerstrom, Erika (GOV) [/O=SOA/OU=FIRST ADMINISTRATIVE -- RE Romer'
p1753
sg5
g6
sg7
(lp1754
g1741
asg9
S'./sarahs_inbox/parsed/msnbc/txt/1003.txt'
p1755
sg10
g30
sg12
g31
sg32
g39
sba(i__main__
inode
p1756
(dp1757
g3
S'frank bailey [ftb907@yahoo.com] -- Le Ear'
p1758
sg5
g6
sg7
(lp1759
g1741
asg9
S'./sarahs_inbox/parsed/msnbc/txt/;1013.txt'
p1760
sg10
g30
sg12
g31
sg32
g1052
sba(i__main__
inode
p1761
(dp1762
g3
S'Mason , Janice L (GOV) [/O=SOA/OU=FIRST ADMINISTRATIVE -- Re Scheduling'
p1763
sg5
g6
sg7
(lp1764
g1741
asg9
S'./sarahs_inbox/parsed/msnbc/txt/10139.txt'
p1765
sg10
g30
sg12
g31
sg32
g87
sbasg32
S'Topic: 28'
p1766
sba(i__main__
inode
p1767
(dp1768
g3
S'name, great, team, chuck, apoc, crew, think, together, thank, redact'
p1769
sg5
g6
sg7
(lp1770
g14
asg9
g4
sg10
g23
sg12
(lp1771
(i__main__
inode
p1772
(dp1773
g3
S'Fagerstrom, Erika (GOV) [erika.fagerstrom@alaska.gov] -- Flight Information Friday, March 28th Travel Jnu-Anc. Fit. 67'
p1774
sg5
g6
sg7
(lp1775
g1767
asg9
S'./sarahs_inbox/parsed/msnbc/txt/1004.txt'
p1776
sg10
g30
sg12
g31
sg32
g755
sba(i__main__
inode
p1777
(dp1778
g3
S'gov.sarah@yahoo.com -- Re Welcome to WOW! - News'
p1779
sg5
g6
sg7
(lp1780
g1767
asg9
S'./sarahs_inbox/parsed/msnbc/txt/10122.txt'
p1781
sg10
g30
sg12
g31
sg32
g831
sba(i__main__
inode
p1782
(dp1783
g3
S'Colberg, Talis J (LAW) [/O=SOA/OU=FIRST ADMINISTRATIVE -- Re Welcome to WOW! - News'
p1784
sg5
g6
sg7
(lp1785
g1767
asg9
S'./sarahs_inbox/parsed/msnbc/txt/10123.txt'
p1786
sg10
g30
sg12
g31
sg32
g837
sba(i__main__
inode
p1787
(dp1788
g3
S'gov.sarah @yahoo.com -- Fw Welcome to WOW! - News'
p1789
sg5
g6
sg7
(lp1790
g1767
asg9
S'./sarahs_inbox/parsed/msnbc/txt/10124.txt'
p1791
sg10
g30
sg12
g31
sg32
g843
sba(i__main__
inode
p1792
(dp1793
g3
S'frank bailey [ftb907@yahoo.com] -- Le Ear'
p1794
sg5
g6
sg7
(lp1795
g1767
asg9
S'./sarahs_inbox/parsed/msnbc/txt/;1013.txt'
p1796
sg10
g30
sg12
g31
sg32
g1052
sba(i__main__
inode
p1797
(dp1798
g3
S'gov.sarah@yahoo.com -- Fagan'
p1799
sg5
g6
sg7
(lp1800
g1767
asg9
S'./sarahs_inbox/parsed/msnbc/txt/10177.txt'
p1801
sg10
g30
sg12
g31
sg32
g693
sbasg32
S'Topic: 29'
p1802
sbasg32
S'Topic Folder'
p1803
sba(i__main__
inode
p1804
(dp1805
g3
g4
sg5
g6
sg7
(lp1806
g1
asg9
g4
sg10
g17
sg12
g31
sg32
S'Social Folder'
p1807
sba(i__main__
inode
p1808
(dp1809
g3
g4
sg5
g6
sg7
(lp1810
g1
asg9
g4
sg10
g17
sg12
(lp1811
sg32
S'Unsorted Folder'
p1812
sbasg32
S'ROOT'
p1813
sbag14
ag1804
ag1808
ag19
ag161
ag179
ag396
ag408
ag426
ag480
ag739
ag762
ag811
ag882
ag927
ag950
ag1022
ag1099
ag1194
ag1246
ag1278
ag1350
ag1366
ag1383
ag1459
ag1515
ag1536
ag1592
ag1633
ag1674
ag1710
ag1741
ag1767
ag25
ag34
ag40
ag46
ag52
ag58
ag64
ag70
ag76
ag82
ag88
ag94
ag100
ag106
ag112
ag118
ag124
ag130
ag136
ag142
ag148
ag154
ag166
ag172
ag184
ag190
ag196
ag202
ag208
ag214
ag220
ag226
ag232
ag238
ag243
ag249
ag255
ag261
ag267
ag273
ag278
ag283
ag289
ag295
ag301
ag307
ag313
ag319
ag324
ag329
ag335
ag341
ag347
ag353
ag359
ag365
ag371
ag377
ag383
ag389
ag401
ag413
ag419
ag431
ag437
ag442
ag447
ag452
ag457
ag462
ag467
ag473
ag485
ag490
ag495
ag500
ag505
ag510
ag515
ag520
ag526
ag532
ag537
ag542
ag547
ag552
ag557
ag563
ag569
ag575
ag580
ag585
ag590
ag595
ag600
ag605
ag610
ag615
ag620
ag626
ag631
ag636
ag642
ag648
ag653
ag658
ag663
ag668
ag673
ag678
ag683
ag688
ag694
ag699
ag705
ag711
ag716
ag721
ag727
ag732
ag744
ag750
ag756
ag767
ag772
ag778
ag784
ag790
ag795
ag800
ag805
ag816
ag821
ag826
ag832
ag838
ag844
ag849
ag854
ag859
ag864
ag869
ag875
ag887
ag893
ag898
ag903
ag908
ag914
ag920
ag932
ag937
ag943
ag955
ag960
ag965
ag970
ag975
ag980
ag985
ag991
ag996
ag1001
ag1006
ag1011
ag1016
ag1027
ag1032
ag1037
ag1042
ag1047
ag1053
ag1058
ag1063
ag1068
ag1073
ag1078
ag1083
ag1088
ag1093
ag1104
ag1109
ag1114
ag1119
ag1125
ag1130
ag1135
ag1140
ag1145
ag1150
ag1155
ag1161
ag1166
ag1171
ag1176
ag1182
ag1188
ag1199
ag1204
ag1209
ag1214
ag1219
ag1224
ag1229
ag1234
ag1240
ag1251
ag1256
ag1261
ag1266
ag1272
ag1283
ag1289
ag1294
ag1299
ag1304
ag1309
ag1314
ag1319
ag1324
ag1329
ag1334
ag1339
ag1344
ag1355
ag1360
ag1371
ag1376
ag1388
ag1393
ag1398
ag1403
ag1408
ag1413
ag1418
ag1423
ag1428
ag1433
ag1438
ag1443
ag1448
ag1453
ag1464
ag1469
ag1474
ag1479
ag1484
ag1489
ag1494
ag1499
ag1504
ag1509
ag1520
ag1525
ag1530
ag1541
ag1546
ag1551
ag1556
ag1561
ag1566
ag1571
ag1576
ag1581
ag1586
ag1597
ag1602
ag1607
ag1612
ag1617
ag1622
ag1627
ag1638
ag1643
ag1648
ag1653
ag1658
ag1663
ag1668
ag1679
ag1684
ag1689
ag1694
ag1699
ag1704
ag1715
ag1720
ag1725
ag1730
ag1735
ag1746
ag1751
ag1756
ag1761
ag1772
ag1777
ag1782
ag1787
ag1792
ag1797
a.