(lp0
(i__main__
inode
p1
(dp2
S'description'
p3
S''
p4
sS'email'
p5
(lp6
sS'parents'
p7
(lp8
sS'email_directory'
p9
g4
sS'type'
p10
S'root'
p11
sS'children'
p12
(lp13
(i__main__
inode
p14
(dp15
g3
g4
sg5
g6
sg7
(lp16
g1
asg9
g4
sg10
S'sub_root'
p17
sg12
(lp18
(i__main__
inode
p19
(dp20
g3
S'process, executive, state, constitution, attorney, client, sec, art, mail, communication'
p21
sg5
g6
sg7
(lp22
g14
asg9
g4
sg10
S'directory'
p23
sg12
(lp24
(i__main__
inode
p25
(dp26
g3
S'Frye, Ivy J (DOA) [/O=SOA/OU=FIRST ADMINISTRATIVE -- Fw Cell phone reimbursement'
p27
sg5
g6
sg7
(lp28
g19
asg9
S'./sarahs_inbox/parsed/msnbc/txt/1001.txt'
p29
sg10
S'email'
p30
sg12
(lp31
sS'name'
p32
S'1001.txt'
p33
sba(i__main__
inode
p34
(dp35
g3
S'Mason , Janice L (GOV) [/O=SOA/OU=FIRST ADMINISTRATIVE -- Luggage'
p36
sg5
g6
sg7
(lp37
g19
asg9
S'./sarahs_inbox/parsed/msnbc/txt/10119.txt'
p38
sg10
g30
sg12
g31
sg32
S'10119.txt'
p39
sbasg32
S'def'
p40
sba(i__main__
inode
p41
(dp42
g3
S'know, get, would, time, want, like, good, work, people, think'
p43
sg5
g6
sg7
(lp44
g14
asg9
g4
sg10
g23
sg12
(lp45
(i__main__
inode
p46
(dp47
g3
S"Fagerstrom, Erika (GOV) [erika.fagerstrom@alaska.gov] -- Final RSVP List- Spouses' Luncheon 1200-130pm."
p48
sg5
g6
sg7
(lp49
g41
asg9
S'./sarahs_inbox/parsed/msnbc/txt/1010.txt'
p50
sg10
g30
sg12
g31
sg32
S'1010.txt'
p51
sba(i__main__
inode
p52
(dp53
g3
S'Frye, Ivy J (DOA) [/O=SOA/OU=FIRST ADMINISTRATIVE -- Re Fwd Support PR Campaign from Trooper President'
p54
sg5
g6
sg7
(lp55
g41
asg9
S'./sarahs_inbox/parsed/msnbc/txt/1011.txt'
p56
sg10
g30
sg12
g31
sg32
S'1011.txt'
p57
sba(i__main__
inode
p58
(dp59
g3
S"Governor Sarah Palin (GOV sponsored) [governor@alaska.govj -- FW George Brown's granddaughter"
p60
sg5
g6
sg7
(lp61
g41
asg9
S'./sarahs_inbox/parsed/msnbc/txt/10110.txt'
p62
sg10
g30
sg12
g31
sg32
S'10110.txt'
p63
sba(i__main__
inode
p64
(dp65
g3
S'Mason , Janice L (GOV) [/O=SOA/OU=FIRST ADMINISTRATIVE -- RE Military_and_VeteransAffairs'
p66
sg5
g6
sg7
(lp67
g41
asg9
S'./sarahs_inbox/parsed/msnbc/txt/10114.txt'
p68
sg10
g30
sg12
g31
sg32
S'10114.txt'
p69
sba(i__main__
inode
p70
(dp71
g3
S'PARNELL, S (GOV sponsored) [/O=SOA/OU=FIRST ADMINISTRATIVE -- LG Office Budget'
p72
sg5
g6
sg7
(lp73
g41
asg9
S'./sarahs_inbox/parsed/msnbc/txt/10116.txt'
p74
sg10
g30
sg12
g31
sg32
S'10116.txt'
p75
sba(i__main__
inode
p76
(dp77
g3
S'PARNELL, S (GOV sponsored ) [/O=SOA/OU=FIRST ADMINISTRATIVE -- LG Office Budget'
p78
sg5
g6
sg7
(lp79
g41
asg9
S'./sarahs_inbox/parsed/msnbc/txt/10118.txt'
p80
sg10
g30
sg12
g31
sg32
S'10118.txt'
p81
sba(i__main__
inode
p82
(dp83
g3
S'ftb907@yahoo.com -- Re Fwd Support PR Campaign from Trooper President'
p84
sg5
g6
sg7
(lp85
g41
asg9
S'./sarahs_inbox/parsed/msnbc/txt/1012.txt'
p86
sg10
g30
sg12
g31
sg32
S'1012.txt'
p87
sba(i__main__
inode
p88
(dp89
g3
S'PARNELL, S (GOV sponsored) [/O=SOA/OU=FIRST ADMINISTRATIVE -- Re Thinking out loud'
p90
sg5
g6
sg7
(lp91
g41
asg9
S'./sarahs_inbox/parsed/msnbc/txt/10127.txt'
p92
sg10
g30
sg12
g31
sg32
S'10127.txt'
p93
sba(i__main__
inode
p94
(dp95
g3
S'gov.sarah@yahoo.com -- Re Thinking out loud'
p96
sg5
g6
sg7
(lp97
g41
asg9
S'./sarahs_inbox/parsed/msnbc/txt/10128.txt'
p98
sg10
g30
sg12
g31
sg32
S'10128.txt'
p99
sba(i__main__
inode
p100
(dp101
g3
S'PARNELL, S (GOV sponsored) [/O=SOA/OU=FIRST ADMINISTRATIVE -- Thinking out loud'
p102
sg5
g6
sg7
(lp103
g41
asg9
S'./sarahs_inbox/parsed/msnbc/txt/10129.txt'
p104
sg10
g30
sg12
g31
sg32
S'10129.txt'
p105
sba(i__main__
inode
p106
(dp107
g3
S'gov.sarah@yahoo.com -- Re Scheduling'
p108
sg5
g6
sg7
(lp109
g41
asg9
S'./sarahs_inbox/parsed/msnbc/txt/10130.txt'
p110
sg10
g30
sg12
g31
sg32
S'10130.txt'
p111
sba(i__main__
inode
p112
(dp113
g3
S'gov.sarah@yahoo.com -- Re Scheduling'
p114
sg5
g6
sg7
(lp115
g41
asg9
S'./sarahs_inbox/parsed/msnbc/txt/10131.txt'
p116
sg10
g30
sg12
g31
sg32
S'10131.txt'
p117
sba(i__main__
inode
p118
(dp119
g3
S'gov. sarah@yahoo.com -- Re Telephone Calls - Drop Out Students'
p120
sg5
g6
sg7
(lp121
g41
asg9
S'./sarahs_inbox/parsed/msnbc/txt/10132.txt'
p122
sg10
g30
sg12
g31
sg32
S'10132.txt'
p123
sba(i__main__
inode
p124
(dp125
g3
S'gov.sarah@yahoo.com -- Re Present from paulette'
p126
sg5
g6
sg7
(lp127
g41
asg9
S'./sarahs_inbox/parsed/msnbc/txt/10136.txt'
p128
sg10
g30
sg12
g31
sg32
S'10136.txt'
p129
sba(i__main__
inode
p130
(dp131
g3
S'gov.sarah@yahoo.com -- Re Scheduling'
p132
sg5
g6
sg7
(lp133
g41
asg9
S'./sarahs_inbox/parsed/msnbc/txt/10137.txt'
p134
sg10
g30
sg12
g31
sg32
S'10137.txt'
p135
sba(i__main__
inode
p136
(dp137
g3
S'Frye, Ivy J (DOA) [/O=SOA/OU=FIRST ADMINISTRATIVE -- Present from paulette'
p138
sg5
g6
sg7
(lp139
g41
asg9
S'./sarahs_inbox/parsed/msnbc/txt/10138.txt'
p140
sg10
g30
sg12
g31
sg32
S'10138.txt'
p141
sba(i__main__
inode
p142
(dp143
g3
S'Mason, Janice L (GOV) [/O=SOA/OU=FIRST ADMINISTRATIVE -- Re Scheduling'
p144
sg5
g6
sg7
(lp145
g41
asg9
S'./sarahs_inbox/parsed/msnbc/txt/10140.txt'
p146
sg10
g30
sg12
g31
sg32
S'10140.txt'
p147
sba(i__main__
inode
p148
(dp149
g3
S'Mason , Janice L (GOV) [/O=SOA/OU=FIRST ADMINISTRATIVE -- Scheduling'
p150
sg5
g6
sg7
(lp151
g41
asg9
S'./sarahs_inbox/parsed/msnbc/txt/10143.txt'
p152
sg10
g30
sg12
g31
sg32
S'10143.txt'
p153
sba(i__main__
inode
p154
(dp155
g3
S'John Katz jwkatz ALASKADC.org] -- Federal Funding/State Budget'
p156
sg5
g6
sg7
(lp157
g41
asg9
S'./sarahs_inbox/parsed/msnbc/txt/10144.txt'
p158
sg10
g30
sg12
g31
sg32
S'10144.txt'
p159
sba(i__main__
inode
p160
(dp161
g3
S'Morgan , Katryn L (GOV) [/O=SOA/OU=FIRST ADMINISTRATIVE -- AK Right to Life Remarks'
p162
sg5
g6
sg7
(lp163
g41
asg9
S'./sarahs_inbox/parsed/msnbc/txt/10145.txt'
p164
sg10
g30
sg12
g31
sg32
S'10145.txt'
p165
sba(i__main__
inode
p166
(dp167
g3
S'Governor Sarah Palin (GOV sponsored) [govemor@alaska.gov] -- RE Health-Care'
p168
sg5
g6
sg7
(lp169
g41
asg9
S'./sarahs_inbox/parsed/msnbc/txt/10149.txt'
p170
sg10
g30
sg12
g31
sg32
S'10149.txt'
p171
sba(i__main__
inode
p172
(dp173
g3
S'Rutherford, Marty K (DNR) [/O=SOA/OU=FIRST ADMINISTRATIVE -- FW Confirmation of the Novemberl 5th discussion'
p174
sg5
g6
sg7
(lp175
g41
asg9
S'./sarahs_inbox/parsed/msnbc/txt/10152.txt'
p176
sg10
g30
sg12
g31
sg32
S'10152.txt'
p177
sba(i__main__
inode
p178
(dp179
g3
S'Sarah Palin [ gov.sarah @yahoo.com] -- Re Happy Thanksgiving!'
p180
sg5
g6
sg7
(lp181
g41
asg9
S'./sarahs_inbox/parsed/msnbc/txt/10159.txt'
p182
sg10
g30
sg12
g31
sg32
S'10159.txt'
p183
sba(i__main__
inode
p184
(dp185
g3
S'Frye, Ivy J (DOA) [/O=SOA/OU=FIRST ADMINISTRATIVE -- Car trouble'
p186
sg5
g6
sg7
(lp187
g41
asg9
S'./sarahs_inbox/parsed/msnbc/txt/10162.txt'
p188
sg10
g30
sg12
g31
sg32
S'10162.txt'
p189
sba(i__main__
inode
p190
(dp191
g3
S'Frye, Ivy J (DOA) [/O=SOA/OU=FIRST ADMINISTRATIVE -- Re Happy Thanksgiving!'
p192
sg5
g6
sg7
(lp193
g41
asg9
S'./sarahs_inbox/parsed/msnbc/txt/10164.txt'
p194
sg10
g30
sg12
g31
sg32
S'10164.txt'
p195
sba(i__main__
inode
p196
(dp197
g3
S'gov.sarah@yahoo.com -- Re Conoco'
p198
sg5
g6
sg7
(lp199
g41
asg9
S'./sarahs_inbox/parsed/msnbc/txt/10168.txt'
p200
sg10
g30
sg12
g31
sg32
S'10168.txt'
p201
sba(i__main__
inode
p202
(dp203
g3
S'gov.sarah@yahoo.com -- Re Conoco'
p204
sg5
g6
sg7
(lp205
g41
asg9
S'./sarahs_inbox/parsed/msnbc/txt/10169.txt'
p206
sg10
g30
sg12
g31
sg32
S'10169.txt'
p207
sba(i__main__
inode
p208
(dp209
g3
S'PARNELL, S (GOV sponsored) [/O=SOA/OU=FIRST ADMINISTRATIVE -- Re Fagan'
p210
sg5
g6
sg7
(lp211
g41
asg9
S'./sarahs_inbox/parsed/msnbc/txt/10172.txt'
p212
sg10
g30
sg12
g31
sg32
S'10172.txt'
p213
sba(i__main__
inode
p214
(dp215
g3
S'gov.sarah @yahoo.com -- Re Fagan'
p216
sg5
g6
sg7
(lp217
g41
asg9
S'./sarahs_inbox/parsed/msnbc/txt/10173.txt'
p218
sg10
g30
sg12
g31
sg32
S'10173.txt'
p219
sba(i__main__
inode
p220
(dp221
g3
S'PARNELL, S (GOV sponsored) [/O=SOA/OU=FIRST ADMINISTRATIVE -- Re Fagan'
p222
sg5
g6
sg7
(lp223
g41
asg9
S'./sarahs_inbox/parsed/msnbc/txt/10174.txt'
p224
sg10
g30
sg12
g31
sg32
S'10174.txt'
p225
sba(i__main__
inode
p226
(dp227
g3
S'gov.sarah@yahoo.com -- Re Fagan'
p228
sg5
g6
sg7
(lp229
g41
asg9
S'./sarahs_inbox/parsed/msnbc/txt/10175.txt'
p230
sg10
g30
sg12
g31
sg32
S'10175.txt'
p231
sba(i__main__
inode
p232
(dp233
g3
S'gov.sarah@yahoo.com -- Re AEA Director'
p234
sg5
g6
sg7
(lp235
g41
asg9
S'./sarahs_inbox/parsed/msnbc/txt/10181.txt'
p236
sg10
g30
sg12
g31
sg32
S'10181.txt'
p237
sba(i__main__
inode
p238
(dp239
g3
S'gov.sarah@yahoo.com -- Re Conoco'
p240
sg5
g6
sg7
(lp241
g41
asg9
S'./sarahs_inbox/parsed/msnbc/txt/10183.txt'
p242
sg10
g30
sg12
g31
sg32
S'10183.txt'
p243
sba(i__main__
inode
p244
(dp245
g3
S'Governor Sarah Palin (GOV sponsored) [governor@alaska.gov] -- RE Health-Care'
p246
sg5
g6
sg7
(lp247
g41
asg9
S'./sarahs_inbox/parsed/msnbc/txt/10184.txt'
p248
sg10
g30
sg12
g31
sg32
S'10184.txt'
p249
sba(i__main__
inode
p250
(dp251
g3
S'gov.sarah@yahoo.com -- AEA Director'
p252
sg5
g6
sg7
(lp253
g41
asg9
S'./sarahs_inbox/parsed/msnbc/txt/10185.txt'
p254
sg10
g30
sg12
g31
sg32
S'10185.txt'
p255
sba(i__main__
inode
p256
(dp257
g3
S'Frye, Ivy J (DOA) [/O=SOA/OU=FIRST ADMINISTRATIVE -- Fw Conoco'
p258
sg5
g6
sg7
(lp259
g41
asg9
S'./sarahs_inbox/parsed/msnbc/txt/10186.txt'
p260
sg10
g30
sg12
g31
sg32
S'10186.txt'
p261
sbasg32
S'wsb'
p262
sba(i__main__
inode
p263
(dp264
g3
S'rural, native, bethel, alaska, dec, village, water, rhonda, mine, commission'
p265
sg5
g6
sg7
(lp266
g14
asg9
g4
sg10
g23
sg12
(lp267
(i__main__
inode
p268
(dp269
g3
S'Governor Sarah Palin (GOV sponsored) [governor@alaska.gov] -- RE Military_and_Veterans_Affairs'
p270
sg5
g6
sg7
(lp271
g263
asg9
S'./sarahs_inbox/parsed/msnbc/txt/10158.txt'
p272
sg10
g30
sg12
g31
sg32
S'10158.txt'
p273
sbasg32
S'Topic: 3'
p274
sba(i__main__
inode
p275
(dp276
g3
S'state, senator, senate, would, bill, house, republican, vote, election, president'
p277
sg5
g6
sg7
(lp278
g14
asg9
g4
sg10
g23
sg12
(lp279
(i__main__
inode
p280
(dp281
g3
S'gov.sarah@yahoo.com -- Re Preparation and roll-out related to filing of lawsuit against Mercer'
p282
sg5
g6
sg7
(lp283
g275
asg9
S'./sarahs_inbox/parsed/msnbc/txt/10112.txt'
p284
sg10
g30
sg12
g31
sg32
S'10112.txt'
p285
sba(i__main__
inode
p286
(dp287
g3
S'Governor Sarah Palin (GOV sponsored) [govemor@alaska.gov] -- RE Other'
p288
sg5
g6
sg7
(lp289
g275
asg9
S'./sarahs_inbox/parsed/msnbc/txt/10126.txt'
p290
sg10
g30
sg12
g31
sg32
S'10126.txt'
p291
sbasg32
S'Topic: 4'
p292
sba(i__main__
inode
p293
(dp294
g3
S'governor, event, would, day, travel, anchorage, family, trip, attend, meeting'
p295
sg5
g6
sg7
(lp296
g14
asg9
g4
sg10
g23
sg12
(lp297
(i__main__
inode
p298
(dp299
g3
S'Fagerstrom, Erika (GOV) VO=SOA/OU=FIRST ADMINISTRATIVE -- Educ.Comm. Thompson- Request to attend Anchorage Mtg.on "Drop out issue" Fri. 4/18 (10-2pm.)'
p300
sg5
g6
sg7
(lp301
g293
asg9
S'./sarahs_inbox/parsed/msnbc/txt/1005.txt'
p302
sg10
g30
sg12
g31
sg32
S'1005.txt'
p303
sba(i__main__
inode
p304
(dp305
g3
S'Mason , Janice L (GOV) [/O=SOA/OU=FIRST ADMINISTRATIVE -- RE Military_and_VeteransAffairs'
p306
sg5
g6
sg7
(lp307
g293
asg9
S'./sarahs_inbox/parsed/msnbc/txt/10114.txt'
p308
sg10
g30
sg12
g31
sg32
g69
sba(i__main__
inode
p309
(dp310
g3
S'Mason , Janice L (GOV) [/O=SOA/OU=FIRST ADMINISTRATIVE -- Troops Returning'
p311
sg5
g6
sg7
(lp312
g293
asg9
S'./sarahs_inbox/parsed/msnbc/txt/10117.txt'
p313
sg10
g30
sg12
g31
sg32
S'10117.txt'
p314
sba(i__main__
inode
p315
(dp316
g3
S'gov.sarah@yahoo.com -- Re Scheduling'
p317
sg5
g6
sg7
(lp318
g293
asg9
S'./sarahs_inbox/parsed/msnbc/txt/10130.txt'
p319
sg10
g30
sg12
g31
sg32
g111
sba(i__main__
inode
p320
(dp321
g3
S'gov.sarah@yahoo.com -- Re Scheduling'
p322
sg5
g6
sg7
(lp323
g293
asg9
S'./sarahs_inbox/parsed/msnbc/txt/10131.txt'
p324
sg10
g30
sg12
g31
sg32
g117
sba(i__main__
inode
p325
(dp326
g3
S'gov.sarah@yahoo.com -- Re Scheduling'
p327
sg5
g6
sg7
(lp328
g293
asg9
S'./sarahs_inbox/parsed/msnbc/txt/10137.txt'
p329
sg10
g30
sg12
g31
sg32
g135
sba(i__main__
inode
p330
(dp331
g3
S'Governor Sarah Palin (GOV sponsored) [governor@alaska.gov] -- RE Military_and_Veterans_Affairs'
p332
sg5
g6
sg7
(lp333
g293
asg9
S'./sarahs_inbox/parsed/msnbc/txt/10158.txt'
p334
sg10
g30
sg12
g31
sg32
g273
sba(i__main__
inode
p335
(dp336
g3
S'gov.sarah@yahoo.com -- Re Scheduling'
p337
sg5
g6
sg7
(lp338
g293
asg9
S'./sarahs_inbox/parsed/msnbc/txt/10171.txt'
p339
sg10
g30
sg12
g31
sg32
S'10171.txt'
p340
sba(i__main__
inode
p341
(dp342
g3
S'gov.sarah@yahoo.com -- Re School'
p343
sg5
g6
sg7
(lp344
g293
asg9
S'./sarahs_inbox/parsed/msnbc/txt/10180.txt'
p345
sg10
g30
sg12
g31
sg32
S'10180.txt'
p346
sbasg32
S'Topic: 5'
p347
sba(i__main__
inode
p348
(dp349
g3
S'sent, one, gov, blackberry, device, cellular, pra, unknown, thanks, janice'
p350
sg5
g6
sg7
(lp351
g14
asg9
g4
sg10
g23
sg12
(lp352
(i__main__
inode
p353
(dp354
g3
S'Frye, Ivy J (DOA) [/O=SOA/OU=FIRST ADMINISTRATIVE -- Fw Cell phone reimbursement'
p355
sg5
g6
sg7
(lp356
g348
asg9
S'./sarahs_inbox/parsed/msnbc/txt/1001.txt'
p357
sg10
g30
sg12
g31
sg32
g33
sba(i__main__
inode
p358
(dp359
g3
S'gov.sarah@yahoo.com -- Re PSA with Todd'
p360
sg5
g6
sg7
(lp361
g348
asg9
S'./sarahs_inbox/parsed/msnbc/txt/10109.txt'
p362
sg10
g30
sg12
g31
sg32
S'10109.txt'
p363
sba(i__main__
inode
p364
(dp365
g3
S"Governor Sarah Palin (GOV sponsored) [governor@alaska.govj -- FW George Brown's granddaughter"
p366
sg5
g6
sg7
(lp367
g348
asg9
S'./sarahs_inbox/parsed/msnbc/txt/10110.txt'
p368
sg10
g30
sg12
g31
sg32
g63
sba(i__main__
inode
p369
(dp370
g3
S'gov.sarah@yahoo.com -- Re Preparation and roll-out related to filing of lawsuit against Mercer'
p371
sg5
g6
sg7
(lp372
g348
asg9
S'./sarahs_inbox/parsed/msnbc/txt/10112.txt'
p373
sg10
g30
sg12
g31
sg32
g285
sba(i__main__
inode
p374
(dp375
g3
S'Mason , Janice L (GOV) I/O=SOA/OU=FIRST ADMINISTRATIVE -- RE Military_and Veterans_Affairs'
p376
sg5
g6
sg7
(lp377
g348
asg9
S'./sarahs_inbox/parsed/msnbc/txt/10113.txt'
p378
sg10
g30
sg12
g31
sg32
S'10113.txt'
p379
sba(i__main__
inode
p380
(dp381
g3
S'Mason , Janice L (GOV) [/O=SOA/OU=FIRST ADMINISTRATIVE -- Luggage'
p382
sg5
g6
sg7
(lp383
g348
asg9
S'./sarahs_inbox/parsed/msnbc/txt/10115.txt'
p384
sg10
g30
sg12
g31
sg32
S'10115.txt'
p385
sba(i__main__
inode
p386
(dp387
g3
S'Mason , Janice L (GOV) [/O=SOA/OU=FIRST ADMINISTRATIVE -- Troops Returning'
p388
sg5
g6
sg7
(lp389
g348
asg9
S'./sarahs_inbox/parsed/msnbc/txt/10117.txt'
p390
sg10
g30
sg12
g31
sg32
g314
sba(i__main__
inode
p391
(dp392
g3
S'Sarah Palin [gov.sarah@yahoo.com] -- Re AK Right to Life Remarks'
p393
sg5
g6
sg7
(lp394
g348
asg9
S'./sarahs_inbox/parsed/msnbc/txt/10120.txt'
p395
sg10
g30
sg12
g31
sg32
S'10120.txt'
p396
sba(i__main__
inode
p397
(dp398
g3
S'gov.sarah @yahoo.com -- CSI Alaska'
p399
sg5
g6
sg7
(lp400
g348
asg9
S'./sarahs_inbox/parsed/msnbc/txt/10125.txt'
p401
sg10
g30
sg12
g31
sg32
S'10125.txt'
p402
sba(i__main__
inode
p403
(dp404
g3
S'PARNELL, S (GOV sponsored) [/O=SOA/OU=FIRST ADMINISTRATIVE -- Re Thinking out loud'
p405
sg5
g6
sg7
(lp406
g348
asg9
S'./sarahs_inbox/parsed/msnbc/txt/10127.txt'
p407
sg10
g30
sg12
g31
sg32
g93
sba(i__main__
inode
p408
(dp409
g3
S'gov.sarah@yahoo.com -- Re Thinking out loud'
p410
sg5
g6
sg7
(lp411
g348
asg9
S'./sarahs_inbox/parsed/msnbc/txt/10128.txt'
p412
sg10
g30
sg12
g31
sg32
g99
sba(i__main__
inode
p413
(dp414
g3
S'gov.sarah@yahoo.com -- Re Scheduling'
p415
sg5
g6
sg7
(lp416
g348
asg9
S'./sarahs_inbox/parsed/msnbc/txt/10130.txt'
p417
sg10
g30
sg12
g31
sg32
g111
sba(i__main__
inode
p418
(dp419
g3
S'gov.sarah@yahoo.com -- Re Scheduling'
p420
sg5
g6
sg7
(lp421
g348
asg9
S'./sarahs_inbox/parsed/msnbc/txt/10131.txt'
p422
sg10
g30
sg12
g31
sg32
g117
sba(i__main__
inode
p423
(dp424
g3
S'gov. sarah@yahoo.com -- Re Telephone Calls - Drop Out Students'
p425
sg5
g6
sg7
(lp426
g348
asg9
S'./sarahs_inbox/parsed/msnbc/txt/10132.txt'
p427
sg10
g30
sg12
g31
sg32
g123
sba(i__main__
inode
p428
(dp429
g3
S'gov.sarah@yahoo.com -- Re Welcome to WOW! - News'
p430
sg5
g6
sg7
(lp431
g348
asg9
S'./sarahs_inbox/parsed/msnbc/txt/10133.txt'
p432
sg10
g30
sg12
g31
sg32
S'10133.txt'
p433
sba(i__main__
inode
p434
(dp435
g3
S'Colberg , Talis J (LAW) [/O=SOA/OU=FIRST ADMINISTRATIVE -- Re Welcome to WOW! - News'
p436
sg5
g6
sg7
(lp437
g348
asg9
S'./sarahs_inbox/parsed/msnbc/txt/10134.txt'
p438
sg10
g30
sg12
g31
sg32
S'10134.txt'
p439
sba(i__main__
inode
p440
(dp441
g3
S'Colberg , Talis J (LAW) [/O=SOA/OU=FIRST ADMINISTRATIVE -- Re Welcome to WOW! - News'
p442
sg5
g6
sg7
(lp443
g348
asg9
S'./sarahs_inbox/parsed/msnbc/txt/10135.txt'
p444
sg10
g30
sg12
g31
sg32
S'10135.txt'
p445
sba(i__main__
inode
p446
(dp447
g3
S'gov.sarah@yahoo.com -- Re Present from paulette'
p448
sg5
g6
sg7
(lp449
g348
asg9
S'./sarahs_inbox/parsed/msnbc/txt/10136.txt'
p450
sg10
g30
sg12
g31
sg32
g129
sba(i__main__
inode
p451
(dp452
g3
S'gov.sarah@yahoo.com -- Re Scheduling'
p453
sg5
g6
sg7
(lp454
g348
asg9
S'./sarahs_inbox/parsed/msnbc/txt/10137.txt'
p455
sg10
g30
sg12
g31
sg32
g135
sba(i__main__
inode
p456
(dp457
g3
S'Mason , Janice L (GOV) [/O=SOA/OU=FIRST ADMINISTRATIVE -- Re Scheduling'
p458
sg5
g6
sg7
(lp459
g348
asg9
S'./sarahs_inbox/parsed/msnbc/txt/10139.txt'
p460
sg10
g30
sg12
g31
sg32
S'10139.txt'
p461
sba(i__main__
inode
p462
(dp463
g3
S'Mason, Janice L (GOV) [/O=SOA/OU=FIRST ADMINISTRATIVE -- Re Scheduling'
p464
sg5
g6
sg7
(lp465
g348
asg9
S'./sarahs_inbox/parsed/msnbc/txt/10140.txt'
p466
sg10
g30
sg12
g31
sg32
g147
sba(i__main__
inode
p467
(dp468
g3
S'Mason, Janice L (GOV) [/O=SOA/OU=FIRST ADMINISTRATIVE -- Telephone Calls - Drop Out Students'
p469
sg5
g6
sg7
(lp470
g348
asg9
S'./sarahs_inbox/parsed/msnbc/txt/10142.txt'
p471
sg10
g30
sg12
g31
sg32
S'10142.txt'
p472
sba(i__main__
inode
p473
(dp474
g3
S'Mason , Janice L (GOV) [/O=SOA/OU=FIRST ADMINISTRATIVE -- Scheduling'
p475
sg5
g6
sg7
(lp476
g348
asg9
S'./sarahs_inbox/parsed/msnbc/txt/10143.txt'
p477
sg10
g30
sg12
g31
sg32
g153
sba(i__main__
inode
p478
(dp479
g3
S'Morgan , Katryn L (GOV) [/O=SOA/OU=FIRST ADMINISTRATIVE -- AK Right to Life Remarks'
p480
sg5
g6
sg7
(lp481
g348
asg9
S'./sarahs_inbox/parsed/msnbc/txt/10145.txt'
p482
sg10
g30
sg12
g31
sg32
g165
sba(i__main__
inode
p483
(dp484
g3
S'Morgan, Katryn L (GOV) [/O=SOA/OU=FIRST ADMINISTRATIVE -- AK Right to Life Remarks'
p485
sg5
g6
sg7
(lp486
g348
asg9
S'./sarahs_inbox/parsed/msnbc/txt/10151.txt'
p487
sg10
g30
sg12
g31
sg32
S'10151.txt'
p488
sba(i__main__
inode
p489
(dp490
g3
S'Rutherford, Marty K (DNR) [/O=SOA/OU=FIRST ADMINISTRATIVE -- FW Confirmation of the Novemberl 5th discussion'
p491
sg5
g6
sg7
(lp492
g348
asg9
S'./sarahs_inbox/parsed/msnbc/txt/10152.txt'
p493
sg10
g30
sg12
g31
sg32
g177
sba(i__main__
inode
p494
(dp495
g3
S'gov.sarah@yahoo.com -- Re AK Right to Life Remarks'
p496
sg5
g6
sg7
(lp497
g348
asg9
S'./sarahs_inbox/parsed/msnbc/txt/10154.txt'
p498
sg10
g30
sg12
g31
sg32
S'10154.txt'
p499
sba(i__main__
inode
p500
(dp501
g3
S'Colberg, Tails J (LAW) [/O=SOA/OU=FIRST ADMINISTRATIVE -- Today.'
p502
sg5
g6
sg7
(lp503
g348
asg9
S'./sarahs_inbox/parsed/msnbc/txt/10155.txt'
p504
sg10
g30
sg12
g31
sg32
S'10155.txt'
p505
sba(i__main__
inode
p506
(dp507
g3
S'Fagerstrom, Erika (GOV) [/O=SOA/OU=FIRST ADMINISTRATIVE -- Flights'
p508
sg5
g6
sg7
(lp509
g348
asg9
S'./sarahs_inbox/parsed/msnbc/txt/1016.txt'
p510
sg10
g30
sg12
g31
sg32
S'1016.txt'
p511
sba(i__main__
inode
p512
(dp513
g3
S'gov.sarah@yahoo.com -- Re Bridge DOT bond'
p514
sg5
g6
sg7
(lp515
g348
asg9
S'./sarahs_inbox/parsed/msnbc/txt/10163.txt'
p516
sg10
g30
sg12
g31
sg32
S'10163.txt'
p517
sba(i__main__
inode
p518
(dp519
g3
S'gov.sarah@yahoo.com -- Ktuu'
p520
sg5
g6
sg7
(lp521
g348
asg9
S'./sarahs_inbox/parsed/msnbc/txt/10167.txt'
p522
sg10
g30
sg12
g31
sg32
S'10167.txt'
p523
sba(i__main__
inode
p524
(dp525
g3
S'gov.sarah@yahoo.com -- Re Conoco'
p526
sg5
g6
sg7
(lp527
g348
asg9
S'./sarahs_inbox/parsed/msnbc/txt/10168.txt'
p528
sg10
g30
sg12
g31
sg32
g201
sba(i__main__
inode
p529
(dp530
g3
S'gov.sarah@yahoo.com -- Re Conoco'
p531
sg5
g6
sg7
(lp532
g348
asg9
S'./sarahs_inbox/parsed/msnbc/txt/10169.txt'
p533
sg10
g30
sg12
g31
sg32
g207
sba(i__main__
inode
p534
(dp535
g3
S'gov.sarah@yahoo.com -- Re Scheduling'
p536
sg5
g6
sg7
(lp537
g348
asg9
S'./sarahs_inbox/parsed/msnbc/txt/10171.txt'
p538
sg10
g30
sg12
g31
sg32
g340
sba(i__main__
inode
p539
(dp540
g3
S'PARNELL, S (GOV sponsored) [/O=SOA/OU=FIRST ADMINISTRATIVE -- Re Fagan'
p541
sg5
g6
sg7
(lp542
g348
asg9
S'./sarahs_inbox/parsed/msnbc/txt/10172.txt'
p543
sg10
g30
sg12
g31
sg32
g213
sba(i__main__
inode
p544
(dp545
g3
S'gov.sarah @yahoo.com -- Re Fagan'
p546
sg5
g6
sg7
(lp547
g348
asg9
S'./sarahs_inbox/parsed/msnbc/txt/10173.txt'
p548
sg10
g30
sg12
g31
sg32
g219
sba(i__main__
inode
p549
(dp550
g3
S'PARNELL, S (GOV sponsored) [/O=SOA/OU=FIRST ADMINISTRATIVE -- Re Fagan'
p551
sg5
g6
sg7
(lp552
g348
asg9
S'./sarahs_inbox/parsed/msnbc/txt/10174.txt'
p553
sg10
g30
sg12
g31
sg32
g225
sba(i__main__
inode
p554
(dp555
g3
S'gov.sarah@yahoo.com -- Re Fagan'
p556
sg5
g6
sg7
(lp557
g348
asg9
S'./sarahs_inbox/parsed/msnbc/txt/10175.txt'
p558
sg10
g30
sg12
g31
sg32
g231
sba(i__main__
inode
p559
(dp560
g3
S'PARNELL, S (GOV sponsored) [/O=SOA/OU=FIRST ADMINISTRATIVE -- Re Fagan'
p561
sg5
g6
sg7
(lp562
g348
asg9
S'./sarahs_inbox/parsed/msnbc/txt/10176.txt'
p563
sg10
g30
sg12
g31
sg32
S'10176.txt'
p564
sba(i__main__
inode
p565
(dp566
g3
S'gov.sarah@yahoo.com -- Fagan'
p567
sg5
g6
sg7
(lp568
g348
asg9
S'./sarahs_inbox/parsed/msnbc/txt/10177.txt'
p569
sg10
g30
sg12
g31
sg32
S'10177.txt'
p570
sba(i__main__
inode
p571
(dp572
g3
S'Balash, Joseph R (GOV) [/O=SOA/OU=FIRST ADMINISTRATIVE -- Re Energy pts'
p573
sg5
g6
sg7
(lp574
g348
asg9
S'./sarahs_inbox/parsed/msnbc/txt/10178.txt'
p575
sg10
g30
sg12
g31
sg32
S'10178.txt'
p576
sba(i__main__
inode
p577
(dp578
g3
S'gov.sarah @yahoo.com -- Energy pts'
p579
sg5
g6
sg7
(lp580
g348
asg9
S'./sarahs_inbox/parsed/msnbc/txt/10179.txt'
p581
sg10
g30
sg12
g31
sg32
S'10179.txt'
p582
sba(i__main__
inode
p583
(dp584
g3
S'Perry, Kristina Y (GOV) [kris.perry@alaska.gov] -- Re Philadelphia'
p585
sg5
g6
sg7
(lp586
g348
asg9
S'./sarahs_inbox/parsed/msnbc/txt/1018.txt'
p587
sg10
g30
sg12
g31
sg32
S'1018.txt'
p588
sba(i__main__
inode
p589
(dp590
g3
S'gov.sarah@yahoo.com -- Re School'
p591
sg5
g6
sg7
(lp592
g348
asg9
S'./sarahs_inbox/parsed/msnbc/txt/10180.txt'
p593
sg10
g30
sg12
g31
sg32
g346
sba(i__main__
inode
p594
(dp595
g3
S'gov.sarah@yahoo.com -- Re AEA Director'
p596
sg5
g6
sg7
(lp597
g348
asg9
S'./sarahs_inbox/parsed/msnbc/txt/10181.txt'
p598
sg10
g30
sg12
g31
sg32
g237
sba(i__main__
inode
p599
(dp600
g3
S'gov.sarah@yahoo.com -- Re AK Right to Life Remarks'
p601
sg5
g6
sg7
(lp602
g348
asg9
S'./sarahs_inbox/parsed/msnbc/txt/10182.txt'
p603
sg10
g30
sg12
g31
sg32
S'10182.txt'
p604
sba(i__main__
inode
p605
(dp606
g3
S'gov.sarah@yahoo.com -- AEA Director'
p607
sg5
g6
sg7
(lp608
g348
asg9
S'./sarahs_inbox/parsed/msnbc/txt/10185.txt'
p609
sg10
g30
sg12
g31
sg32
g255
sba(i__main__
inode
p610
(dp611
g3
S'gov.sarah@yahoo.com -- Fw AEA tomorrow'
p612
sg5
g6
sg7
(lp613
g348
asg9
S'./sarahs_inbox/parsed/msnbc/txt/10187.txt'
p614
sg10
g30
sg12
g31
sg32
S'10187.txt'
p615
sbasg32
S'Topic: 6'
p616
sba(i__main__
inode
p617
(dp618
g3
S'contract, sep, state, told, pra, valley, prayer, service, said, dan'
p619
sg5
g6
sg7
(lp620
g14
asg9
g4
sg10
g23
sg12
(lp621
(i__main__
inode
p622
(dp623
g3
S'Fagerstrom, Erika (GOV) [/O=SOA/OU=FIRST ADMINISTRATIVE -- Water Pipe Replacement Cost'
p624
sg5
g6
sg7
(lp625
g617
asg9
S'./sarahs_inbox/parsed/msnbc/txt/1000.txt'
p626
sg10
g30
sg12
g31
sg32
S'1000.txt'
p627
sba(i__main__
inode
p628
(dp629
g3
S'Fagerstrom, Erika (GOV) [erika.fagerstrom@alaska.gov] -- Flight Information Friday, March 28th Travel Jnu-Anc. Fit. 67'
p630
sg5
g6
sg7
(lp631
g617
asg9
S'./sarahs_inbox/parsed/msnbc/txt/1004.txt'
p632
sg10
g30
sg12
g31
sg32
S'1004.txt'
p633
sba(i__main__
inode
p634
(dp635
g3
S'gov.sarah@yahoo.com -- Re School'
p636
sg5
g6
sg7
(lp637
g617
asg9
S'./sarahs_inbox/parsed/msnbc/txt/10180.txt'
p638
sg10
g30
sg12
g31
sg32
g346
sbasg32
S'Topic: 7'
p639
sba(i__main__
inode
p640
(dp641
g3
S'gas, alaska, oil, state, pipeline, agia, project, company, said, governor'
p642
sg5
g6
sg7
(lp643
g14
asg9
g4
sg10
g23
sg12
(lp644
(i__main__
inode
p645
(dp646
g3
S'Mason , Janice L (GOV) [/O=SOA/OU=FIRST ADMINISTRATIVE -- Scheduling'
p647
sg5
g6
sg7
(lp648
g640
asg9
S'./sarahs_inbox/parsed/msnbc/txt/10143.txt'
p649
sg10
g30
sg12
g31
sg32
g153
sba(i__main__
inode
p650
(dp651
g3
S'Leschper, Beth (GOV) [beth.leschper@alaska.gov] -- updated talking points'
p652
sg5
g6
sg7
(lp653
g640
asg9
S'./sarahs_inbox/parsed/msnbc/txt/10146.txt'
p654
sg10
g30
sg12
g31
sg32
S'10146.txt'
p655
sba(i__main__
inode
p656
(dp657
g3
S'Governor Sarah Palin (GOV sponsored) [governor@ alaska.gov] -- Voices Across Alaska State Budget Priorities'
p658
sg5
g6
sg7
(lp659
g640
asg9
S'./sarahs_inbox/parsed/msnbc/txt/10148.txt'
p660
sg10
g30
sg12
g31
sg32
S'10148.txt'
p661
sba(i__main__
inode
p662
(dp663
g3
S'Frye, Ivy J (DOA) [/O=SOA/OU=FIRST ADMINISTRATIVE GROUP/CN=RECIPIENTS/CN=IJFRYE] -- great letter to the editor from Phil Schneider'
p664
sg5
g6
sg7
(lp665
g640
asg9
S'./sarahs_inbox/parsed/msnbc/txt/10156.txt'
p666
sg10
g30
sg12
g31
sg32
S'10156.txt'
p667
sba(i__main__
inode
p668
(dp669
g3
S'gov.sarah@yahoo.com -- Re Conoco'
p670
sg5
g6
sg7
(lp671
g640
asg9
S'./sarahs_inbox/parsed/msnbc/txt/10168.txt'
p672
sg10
g30
sg12
g31
sg32
g201
sba(i__main__
inode
p673
(dp674
g3
S'gov.sarah@yahoo.com -- Re Conoco'
p675
sg5
g6
sg7
(lp676
g640
asg9
S'./sarahs_inbox/parsed/msnbc/txt/10169.txt'
p677
sg10
g30
sg12
g31
sg32
g207
sba(i__main__
inode
p678
(dp679
g3
S'gov.sarah@yahoo.com -- Re Conoco'
p680
sg5
g6
sg7
(lp681
g640
asg9
S'./sarahs_inbox/parsed/msnbc/txt/10183.txt'
p682
sg10
g30
sg12
g31
sg32
g243
sba(i__main__
inode
p683
(dp684
g3
S'Frye, Ivy J (DOA) [/O=SOA/OU=FIRST ADMINISTRATIVE -- Fw Conoco'
p685
sg5
g6
sg7
(lp686
g640
asg9
S'./sarahs_inbox/parsed/msnbc/txt/10186.txt'
p687
sg10
g30
sg12
g31
sg32
g261
sbasg32
S'Topic: 8'
p688
sba(i__main__
inode
p689
(dp690
g3
S'gov, privileged, personal, material, redacted, sharon, alaska, pra, leighow, sent'
p691
sg5
g6
sg7
(lp692
g14
asg9
g4
sg10
g23
sg12
(lp693
(i__main__
inode
p694
(dp695
g3
S'gov.sarah@yahoo.com -- Re PSA with Todd'
p696
sg5
g6
sg7
(lp697
g689
asg9
S'./sarahs_inbox/parsed/msnbc/txt/10109.txt'
p698
sg10
g30
sg12
g31
sg32
g363
sba(i__main__
inode
p699
(dp700
g3
S'Sarah Palin [gov.sarah@yahoo.com] -- Re AK Right to Life Remarks'
p701
sg5
g6
sg7
(lp702
g689
asg9
S'./sarahs_inbox/parsed/msnbc/txt/10120.txt'
p703
sg10
g30
sg12
g31
sg32
g396
sba(i__main__
inode
p704
(dp705
g3
S'gov.sarah@yahoo.com -- Re Welcome to WOW! - News'
p706
sg5
g6
sg7
(lp707
g689
asg9
S'./sarahs_inbox/parsed/msnbc/txt/10122.txt'
p708
sg10
g30
sg12
g31
sg32
S'10122.txt'
p709
sba(i__main__
inode
p710
(dp711
g3
S'Colberg, Talis J (LAW) [/O=SOA/OU=FIRST ADMINISTRATIVE -- Re Welcome to WOW! - News'
p712
sg5
g6
sg7
(lp713
g689
asg9
S'./sarahs_inbox/parsed/msnbc/txt/10123.txt'
p714
sg10
g30
sg12
g31
sg32
S'10123.txt'
p715
sba(i__main__
inode
p716
(dp717
g3
S'gov.sarah @yahoo.com -- Fw Welcome to WOW! - News'
p718
sg5
g6
sg7
(lp719
g689
asg9
S'./sarahs_inbox/parsed/msnbc/txt/10124.txt'
p720
sg10
g30
sg12
g31
sg32
S'10124.txt'
p721
sba(i__main__
inode
p722
(dp723
g3
S'PARNELL, S (GOV sponsored) [/O=SOA/OU=FIRST ADMINISTRATIVE -- Re Thinking out loud'
p724
sg5
g6
sg7
(lp725
g689
asg9
S'./sarahs_inbox/parsed/msnbc/txt/10127.txt'
p726
sg10
g30
sg12
g31
sg32
g93
sba(i__main__
inode
p727
(dp728
g3
S'gov.sarah@yahoo.com -- Re Welcome to WOW! - News'
p729
sg5
g6
sg7
(lp730
g689
asg9
S'./sarahs_inbox/parsed/msnbc/txt/10133.txt'
p731
sg10
g30
sg12
g31
sg32
g433
sba(i__main__
inode
p732
(dp733
g3
S'Colberg , Talis J (LAW) [/O=SOA/OU=FIRST ADMINISTRATIVE -- Re Welcome to WOW! - News'
p734
sg5
g6
sg7
(lp735
g689
asg9
S'./sarahs_inbox/parsed/msnbc/txt/10134.txt'
p736
sg10
g30
sg12
g31
sg32
g439
sba(i__main__
inode
p737
(dp738
g3
S'Colberg , Talis J (LAW) [/O=SOA/OU=FIRST ADMINISTRATIVE -- Re Welcome to WOW! - News'
p739
sg5
g6
sg7
(lp740
g689
asg9
S'./sarahs_inbox/parsed/msnbc/txt/10135.txt'
p741
sg10
g30
sg12
g31
sg32
g445
sba(i__main__
inode
p742
(dp743
g3
S'Morgan , Katryn L (GOV) [/O=SOA/OU=FIRST ADMINISTRATIVE -- AK Right to Life Remarks'
p744
sg5
g6
sg7
(lp745
g689
asg9
S'./sarahs_inbox/parsed/msnbc/txt/10145.txt'
p746
sg10
g30
sg12
g31
sg32
g165
sba(i__main__
inode
p747
(dp748
g3
S'Jackson, Karleen K (HSS) [karleen.jackson@aiaska.gov] -- RE Governors Budget Priorities Web Survey'
p749
sg5
g6
sg7
(lp750
g689
asg9
S'./sarahs_inbox/parsed/msnbc/txt/;10147.txt'
p751
sg10
g30
sg12
g31
sg32
S';10147.txt'
p752
sba(i__main__
inode
p753
(dp754
g3
S"Palin, Sarah (GOV sponsored ) [govpalin@alaska.gov] -- Re Murph O'brien"
p755
sg5
g6
sg7
(lp756
g689
asg9
S'./sarahs_inbox/parsed/msnbc/txt/10170.txt'
p757
sg10
g30
sg12
g31
sg32
S'10170.txt'
p758
sbasg32
S'Topic: 9'
p759
sba(i__main__
inode
p760
(dp761
g3
S'budget, project, karen, funding, cut, gov, capital, million, fund, request'
p762
sg5
g6
sg7
(lp763
g14
asg9
g4
sg10
g23
sg12
(lp764
(i__main__
inode
p765
(dp766
g3
S'Palin, Sarah (GOV sponsored) [govpalinalaska.gov] -- Re FYI'
p767
sg5
g6
sg7
(lp768
g760
asg9
S'./sarahs_inbox/parsed/msnbc/txt/10111.txt'
p769
sg10
g30
sg12
g31
sg32
S'10111.txt'
p770
sba(i__main__
inode
p771
(dp772
g3
S'John Katz jwkatz ALASKADC.org] -- Federal Funding/State Budget'
p773
sg5
g6
sg7
(lp774
g760
asg9
S'./sarahs_inbox/parsed/msnbc/txt/10144.txt'
p775
sg10
g30
sg12
g31
sg32
g159
sba(i__main__
inode
p776
(dp777
g3
S'Governor Sarah Palin (GOV sponsored) [governor@ alaska.gov] -- Voices Across Alaska State Budget Priorities'
p778
sg5
g6
sg7
(lp779
g760
asg9
S'./sarahs_inbox/parsed/msnbc/txt/10148.txt'
p780
sg10
g30
sg12
g31
sg32
g661
sba(i__main__
inode
p781
(dp782
g3
S'gov.sarah@yahoo.com -- Re Bridge DOT bond'
p783
sg5
g6
sg7
(lp784
g760
asg9
S'./sarahs_inbox/parsed/msnbc/txt/10163.txt'
p785
sg10
g30
sg12
g31
sg32
g517
sba(i__main__
inode
p786
(dp787
g3
S'Kris Norosz [KrisN@Icic[eSeafoods.com] -- Support for the UAF "fisheries" line item'
p788
sg5
g6
sg7
(lp789
g760
asg9
S'./sarahs_inbox/parsed/msnbc/txt/10166.txt'
p790
sg10
g30
sg12
g31
sg32
S'10166.txt'
p791
sba(i__main__
inode
p792
(dp793
g3
S'Rehfeld, Karen J (GOV) [/O=SOA/OU=FIRST ADMINISTRATIVE -- RE Support for the UAF "fisheries" line item'
p794
sg5
g6
sg7
(lp795
g760
asg9
S'./sarahs_inbox/parsed/msnbc/txt/10188.txt'
p796
sg10
g30
sg12
g31
sg32
S'10188.txt'
p797
sba(i__main__
inode
p798
(dp799
g3
S'Rehfeld, Karen J (GOV) [/O=SOA/OU=FIRST ADMINISTRATIVE -- RE Univ. of Alaska Funding - Fisheries'
p800
sg5
g6
sg7
(lp801
g760
asg9
S'./sarahs_inbox/parsed/msnbc/txt/10189.txt'
p802
sg10
g30
sg12
g31
sg32
S'10189.txt'
p803
sbasg32
S'Topic: 10'
p804
sba(i__main__
inode
p805
(dp806
g3
S'com, http, net, www, rep, laa, state, legis, exct, adn'
p807
sg5
g6
sg7
(lp808
g14
asg9
g4
sg10
g23
sg12
(lp809
(i__main__
inode
p810
(dp811
g3
S"Fagerstrom, Erika (GOV) [erika.fagerstrom@alaska.gov] -- RE FYI- RSVP Spouses' Luncheon Friday, March 28, 2008 1200 to 130pm."
p812
sg5
g6
sg7
(lp813
g805
asg9
S'./sarahs_inbox/parsed/msnbc/txt/;1006.txt'
p814
sg10
g30
sg12
g31
sg32
S';1006.txt'
p815
sba(i__main__
inode
p816
(dp817
g3
S" -- Rep. Olson's Spouse not attending"
p818
sg5
g6
sg7
(lp819
g805
asg9
S'./sarahs_inbox/parsed/msnbc/txt/1008.txt'
p820
sg10
g30
sg12
g31
sg32
S'1008.txt'
p821
sba(i__main__
inode
p822
(dp823
g3
S'Linda Kovac [Ikovac@chugiakcouncil.org] -- Chugiak Community Council Request re Old Glenn Highway Project'
p824
sg5
g6
sg7
(lp825
g805
asg9
S'./sarahs_inbox/parsed/msnbc/txt/10160.txt'
p826
sg10
g30
sg12
g31
sg32
S'10160.txt'
p827
sbasg32
S'Topic: 11'
p828
sba(i__main__
inode
p829
(dp830
g3
S'erika, governor, alaska, roston, todd, house, fagerstrom, juneau, phone, thanks'
p831
sg5
g6
sg7
(lp832
g14
asg9
g4
sg10
g23
sg12
(lp833
(i__main__
inode
p834
(dp835
g3
S'Fagerstrom, Erika (GOV) [/O=SOA/OU=FIRST ADMINISTRATIVE -- Water Pipe Replacement Cost'
p836
sg5
g6
sg7
(lp837
g829
asg9
S'./sarahs_inbox/parsed/msnbc/txt/1000.txt'
p838
sg10
g30
sg12
g31
sg32
g627
sba(i__main__
inode
p839
(dp840
g3
S'Fagerstrom, Erika (GOV) [/O=SOA/OU=FIRST ADMINISTRATIVE -- Travel Fri. 3/28'
p841
sg5
g6
sg7
(lp842
g829
asg9
S'./sarahs_inbox/parsed/msnbc/txt/1002.txt'
p843
sg10
g30
sg12
g31
sg32
S'1002.txt'
p844
sba(i__main__
inode
p845
(dp846
g3
S'Fagerstrom, Erika (GOV) [/O=SOA/OU=FIRST ADMINISTRATIVE -- RE Romer'
p847
sg5
g6
sg7
(lp848
g829
asg9
S'./sarahs_inbox/parsed/msnbc/txt/1003.txt'
p849
sg10
g30
sg12
g31
sg32
S'1003.txt'
p850
sba(i__main__
inode
p851
(dp852
g3
S'Fagerstrom, Erika (GOV) [erika.fagerstrom@alaska.gov] -- Flight Information Friday, March 28th Travel Jnu-Anc. Fit. 67'
p853
sg5
g6
sg7
(lp854
g829
asg9
S'./sarahs_inbox/parsed/msnbc/txt/1004.txt'
p855
sg10
g30
sg12
g31
sg32
g633
sba(i__main__
inode
p856
(dp857
g3
S'Fagerstrom, Erika (GOV) VO=SOA/OU=FIRST ADMINISTRATIVE -- Educ.Comm. Thompson- Request to attend Anchorage Mtg.on "Drop out issue" Fri. 4/18 (10-2pm.)'
p858
sg5
g6
sg7
(lp859
g829
asg9
S'./sarahs_inbox/parsed/msnbc/txt/1005.txt'
p860
sg10
g30
sg12
g31
sg32
g303
sba(i__main__
inode
p861
(dp862
g3
S"Fagerstrom, Erika (GOV) [erika.fagerstrom@alaska.gov] -- RE FYI- RSVP Spouses' Luncheon Friday, March 28, 2008 1200 to 130pm."
p863
sg5
g6
sg7
(lp864
g829
asg9
S'./sarahs_inbox/parsed/msnbc/txt/;1006.txt'
p865
sg10
g30
sg12
g31
sg32
g815
sba(i__main__
inode
p866
(dp867
g3
S'fek9wnr@yahoo.com -- Re Call'
p868
sg5
g6
sg7
(lp869
g829
asg9
S'./sarahs_inbox/parsed/msnbc/txt/1007.txt'
p870
sg10
g30
sg12
g31
sg32
S'1007.txt'
p871
sba(i__main__
inode
p872
(dp873
g3
S" -- Rep. Olson's Spouse not attending"
p874
sg5
g6
sg7
(lp875
g829
asg9
S'./sarahs_inbox/parsed/msnbc/txt/1008.txt'
p876
sg10
g30
sg12
g31
sg32
g821
sba(i__main__
inode
p877
(dp878
g3
S"Fagerstrom, Erika (GOV) [erika.fagerstrom@alaska.gov] -- Final RSVP List- Spouses' Luncheon 1200-130pm."
p879
sg5
g6
sg7
(lp880
g829
asg9
S'./sarahs_inbox/parsed/msnbc/txt/1010.txt'
p881
sg10
g30
sg12
g31
sg32
g51
sba(i__main__
inode
p882
(dp883
g3
S'Mason , Janice L (GOV) [/O=SOA/OU=FIRST ADMINISTRATIVE -- Luggage'
p884
sg5
g6
sg7
(lp885
g829
asg9
S'./sarahs_inbox/parsed/msnbc/txt/10115.txt'
p886
sg10
g30
sg12
g31
sg32
g385
sba(i__main__
inode
p887
(dp888
g3
S'Fagerstrom, Erika (GOV) [/O=SOA/OU=FIRST ADMINISTRATIVE -- Flights'
p889
sg5
g6
sg7
(lp890
g829
asg9
S'./sarahs_inbox/parsed/msnbc/txt/1016.txt'
p891
sg10
g30
sg12
g31
sg32
g511
sba(i__main__
inode
p892
(dp893
g3
S'Fagerstrom, Erika (GOV) [/O=SOA/OU=FIRST ADMINISTRATIVE -- Dates are TH 3/3 and F 3/4'
p894
sg5
g6
sg7
(lp895
g829
asg9
S'./sarahs_inbox/parsed/msnbc/txt/1017.txt'
p896
sg10
g30
sg12
g31
sg32
S'1017.txt'
p897
sba(i__main__
inode
p898
(dp899
g3
S'Perry, Kristina Y (GOV) [kris.perry@alaska.gov] -- Re Philadelphia'
p900
sg5
g6
sg7
(lp901
g829
asg9
S'./sarahs_inbox/parsed/msnbc/txt/1018.txt'
p902
sg10
g30
sg12
g31
sg32
g588
sbasg32
S'Topic: 12'
p903
sba(i__main__
inode
p904
(dp905
g3
S'yahoo, gov, ivy, com, sarah, frye, palin, unknown, office, state'
p906
sg5
g6
sg7
(lp907
g14
asg9
g4
sg10
g23
sg12
(lp908
(i__main__
inode
p909
(dp910
g3
S'fek9wnr@yahoo.com -- Re Call'
p911
sg5
g6
sg7
(lp912
g904
asg9
S'./sarahs_inbox/parsed/msnbc/txt/1007.txt'
p913
sg10
g30
sg12
g31
sg32
g871
sba(i__main__
inode
p914
(dp915
g3
S" -- Rep. Olson's Spouse not attending"
p916
sg5
g6
sg7
(lp917
g904
asg9
S'./sarahs_inbox/parsed/msnbc/txt/1008.txt'
p918
sg10
g30
sg12
g31
sg32
g821
sba(i__main__
inode
p919
(dp920
g3
S'gov.sarah @yahoo.com -- CSI Alaska'
p921
sg5
g6
sg7
(lp922
g904
asg9
S'./sarahs_inbox/parsed/msnbc/txt/10125.txt'
p923
sg10
g30
sg12
g31
sg32
g402
sba(i__main__
inode
p924
(dp925
g3
S'gov.sarah@yahoo.com -- Re Thinking out loud'
p926
sg5
g6
sg7
(lp927
g904
asg9
S'./sarahs_inbox/parsed/msnbc/txt/10128.txt'
p928
sg10
g30
sg12
g31
sg32
g99
sba(i__main__
inode
p929
(dp930
g3
S'frank bailey [ftb907@yahoo.com] -- Le Ear'
p931
sg5
g6
sg7
(lp932
g904
asg9
S'./sarahs_inbox/parsed/msnbc/txt/;1013.txt'
p933
sg10
g30
sg12
g31
sg32
S';1013.txt'
p934
sba(i__main__
inode
p935
(dp936
g3
S'gov.sarah@yahoo.com -- Re Present from paulette'
p937
sg5
g6
sg7
(lp938
g904
asg9
S'./sarahs_inbox/parsed/msnbc/txt/10136.txt'
p939
sg10
g30
sg12
g31
sg32
g129
sba(i__main__
inode
p940
(dp941
g3
S'Frye, Ivy J (DOA) [/O=SOA/OU=FIRST ADMINISTRATIVE -- Present from paulette'
p942
sg5
g6
sg7
(lp943
g904
asg9
S'./sarahs_inbox/parsed/msnbc/txt/10138.txt'
p944
sg10
g30
sg12
g31
sg32
g141
sba(i__main__
inode
p945
(dp946
g3
S'Frye, Ivy J (DOA) [/O=SOA/OU=FIRST ADMINISTRATIVE -- Fw Psea ads'
p947
sg5
g6
sg7
(lp948
g904
asg9
S'./sarahs_inbox/parsed/msnbc/txt/1014.txt'
p949
sg10
g30
sg12
g31
sg32
S'1014.txt'
p950
sba(i__main__
inode
p951
(dp952
g3
S'Frye, Ivy J (DOA) [/O=SOA/OU=FIRST ADMINISTRATIVE GROUP/CN=RECIPIENTS/CN=IJFRYEI -- FW empire'
p953
sg5
g6
sg7
(lp954
g904
asg9
S'./sarahs_inbox/parsed/msnbc/txt/1015.txt'
p955
sg10
g30
sg12
g31
sg32
S'1015.txt'
p956
sba(i__main__
inode
p957
(dp958
g3
S'Sarah Palin [ gov.sarah @yahoo.com] -- Re Happy Thanksgiving!'
p959
sg5
g6
sg7
(lp960
g904
asg9
S'./sarahs_inbox/parsed/msnbc/txt/10159.txt'
p961
sg10
g30
sg12
g31
sg32
g183
sba(i__main__
inode
p962
(dp963
g3
S'Frye, Ivy J (DOA) [/O=SOA/OU=FIRST ADMINISTRATIVE -- Car trouble'
p964
sg5
g6
sg7
(lp965
g904
asg9
S'./sarahs_inbox/parsed/msnbc/txt/10162.txt'
p966
sg10
g30
sg12
g31
sg32
g189
sba(i__main__
inode
p967
(dp968
g3
S'Frye, Ivy J (DOA) [/O=SOA/OU=FIRST ADMINISTRATIVE -- Re Happy Thanksgiving!'
p969
sg5
g6
sg7
(lp970
g904
asg9
S'./sarahs_inbox/parsed/msnbc/txt/10164.txt'
p971
sg10
g30
sg12
g31
sg32
g195
sba(i__main__
inode
p972
(dp973
g3
S'Fagerstrom, Erika (GOV) [/O=SOA/OU=FIRST ADMINISTRATIVE -- Dates are TH 3/3 and F 3/4'
p974
sg5
g6
sg7
(lp975
g904
asg9
S'./sarahs_inbox/parsed/msnbc/txt/1017.txt'
p976
sg10
g30
sg12
g31
sg32
g897
sba(i__main__
inode
p977
(dp978
g3
S"Palin, Sarah (GOV sponsored ) [govpalin@alaska.gov] -- Re Murph O'brien"
p979
sg5
g6
sg7
(lp980
g904
asg9
S'./sarahs_inbox/parsed/msnbc/txt/10170.txt'
p981
sg10
g30
sg12
g31
sg32
g758
sbasg32
S'Topic: 13'
p982
sba(i__main__
inode
p983
(dp984
g3
S'law, talis, state, court, email, attorney, page, governor, palin, question'
p985
sg5
g6
sg7
(lp986
g14
asg9
g4
sg10
g23
sg12
(lp987
(i__main__
inode
p988
(dp989
g3
S'Frye, Ivy J (DOA) [/O=SOA/OU=FIRST ADMINISTRATIVE -- Fw Cell phone reimbursement'
p990
sg5
g6
sg7
(lp991
g983
asg9
S'./sarahs_inbox/parsed/msnbc/txt/1001.txt'
p992
sg10
g30
sg12
g31
sg32
g33
sba(i__main__
inode
p993
(dp994
g3
S'gov.sarah@yahoo.com -- Re Preparation and roll-out related to filing of lawsuit against Mercer'
p995
sg5
g6
sg7
(lp996
g983
asg9
S'./sarahs_inbox/parsed/msnbc/txt/10112.txt'
p997
sg10
g30
sg12
g31
sg32
g285
sba(i__main__
inode
p998
(dp999
g3
S'Sarah Palin [gov.sarah@yahoo.com] -- Re AK Right to Life Remarks'
p1000
sg5
g6
sg7
(lp1001
g983
asg9
S'./sarahs_inbox/parsed/msnbc/txt/10120.txt'
p1002
sg10
g30
sg12
g31
sg32
g396
sba(i__main__
inode
p1003
(dp1004
g3
S"Leschper, Beth (GOV) [beth.leschper@alaska.gov] -- Governor's Budget Priorities Web Survey"
p1005
sg5
g6
sg7
(lp1006
g983
asg9
S'./sarahs_inbox/parsed/msnbc/txt/10121.txt'
p1007
sg10
g30
sg12
g31
sg32
S'10121.txt'
p1008
sba(i__main__
inode
p1009
(dp1010
g3
S'gov.sarah@yahoo.com -- Re Welcome to WOW! - News'
p1011
sg5
g6
sg7
(lp1012
g983
asg9
S'./sarahs_inbox/parsed/msnbc/txt/10122.txt'
p1013
sg10
g30
sg12
g31
sg32
g709
sba(i__main__
inode
p1014
(dp1015
g3
S'Colberg, Talis J (LAW) [/O=SOA/OU=FIRST ADMINISTRATIVE -- Re Welcome to WOW! - News'
p1016
sg5
g6
sg7
(lp1017
g983
asg9
S'./sarahs_inbox/parsed/msnbc/txt/10123.txt'
p1018
sg10
g30
sg12
g31
sg32
g715
sba(i__main__
inode
p1019
(dp1020
g3
S'gov.sarah @yahoo.com -- Fw Welcome to WOW! - News'
p1021
sg5
g6
sg7
(lp1022
g983
asg9
S'./sarahs_inbox/parsed/msnbc/txt/10124.txt'
p1023
sg10
g30
sg12
g31
sg32
g721
sba(i__main__
inode
p1024
(dp1025
g3
S'gov.sarah@yahoo.com -- Re Welcome to WOW! - News'
p1026
sg5
g6
sg7
(lp1027
g983
asg9
S'./sarahs_inbox/parsed/msnbc/txt/10133.txt'
p1028
sg10
g30
sg12
g31
sg32
g433
sba(i__main__
inode
p1029
(dp1030
g3
S'Colberg , Talis J (LAW) [/O=SOA/OU=FIRST ADMINISTRATIVE -- Re Welcome to WOW! - News'
p1031
sg5
g6
sg7
(lp1032
g983
asg9
S'./sarahs_inbox/parsed/msnbc/txt/10134.txt'
p1033
sg10
g30
sg12
g31
sg32
g439
sba(i__main__
inode
p1034
(dp1035
g3
S'Colberg , Talis J (LAW) [/O=SOA/OU=FIRST ADMINISTRATIVE -- Re Welcome to WOW! - News'
p1036
sg5
g6
sg7
(lp1037
g983
asg9
S'./sarahs_inbox/parsed/msnbc/txt/10135.txt'
p1038
sg10
g30
sg12
g31
sg32
g445
sba(i__main__
inode
p1039
(dp1040
g3
S'PARNELL, S (GOV sponsored) [/O=SOA/OU=FIRST ADMINISTRATIVE -- Kenai River Regs'
p1041
sg5
g6
sg7
(lp1042
g983
asg9
S'./sarahs_inbox/parsed/msnbc/txt/10141.txt'
p1043
sg10
g30
sg12
g31
sg32
S'10141.txt'
p1044
sba(i__main__
inode
p1045
(dp1046
g3
S'Morgan, Katryn L (GOV) [/O=SOA/OU=FIRST ADMINISTRATIVE -- AK Right to Life Remarks'
p1047
sg5
g6
sg7
(lp1048
g983
asg9
S'./sarahs_inbox/parsed/msnbc/txt/10151.txt'
p1049
sg10
g30
sg12
g31
sg32
g488
sba(i__main__
inode
p1050
(dp1051
g3
S'gov.sarah@yahoo.com -- Re AK Right to Life Remarks'
p1052
sg5
g6
sg7
(lp1053
g983
asg9
S'./sarahs_inbox/parsed/msnbc/txt/10154.txt'
p1054
sg10
g30
sg12
g31
sg32
g499
sba(i__main__
inode
p1055
(dp1056
g3
S'Colberg, Tails J (LAW) [/O=SOA/OU=FIRST ADMINISTRATIVE -- Today.'
p1057
sg5
g6
sg7
(lp1058
g983
asg9
S'./sarahs_inbox/parsed/msnbc/txt/10155.txt'
p1059
sg10
g30
sg12
g31
sg32
g505
sba(i__main__
inode
p1060
(dp1061
g3
S'gov.sarah@yahoo.com -- Re Ethics training lacks a final test'
p1062
sg5
g6
sg7
(lp1063
g983
asg9
S'./sarahs_inbox/parsed/msnbc/txt/10161.txt'
p1064
sg10
g30
sg12
g31
sg32
S'10161.txt'
p1065
sba(i__main__
inode
p1066
(dp1067
g3
S'Kreitzer, Annette E (DOA) [/O=SOA/OU=FIRST ADMINISTRATIVE -- FW Ethics training lacks a final test'
p1068
sg5
g6
sg7
(lp1069
g983
asg9
S'./sarahs_inbox/parsed/msnbc/txt/10165.txt'
p1070
sg10
g30
sg12
g31
sg32
S'10165.txt'
p1071
sba(i__main__
inode
p1072
(dp1073
g3
S'gov.sarah@yahoo.com -- Re AK Right to Life Remarks'
p1074
sg5
g6
sg7
(lp1075
g983
asg9
S'./sarahs_inbox/parsed/msnbc/txt/10182.txt'
p1076
sg10
g30
sg12
g31
sg32
g604
sbasg32
S'Topic: 14'
p1077
sba(i__main__
inode
p1078
(dp1079
g3
S'state, alaska, year, public, land, would, department, area, people, trooper'
p1080
sg5
g6
sg7
(lp1081
g14
asg9
g4
sg10
g23
sg12
(lp1082
(i__main__
inode
p1083
(dp1084
g3
S'Frye, Ivy J (DOA) [/O=SOA/OU=FIRST ADMINISTRATIVE -- Re Fwd Support PR Campaign from Trooper President'
p1085
sg5
g6
sg7
(lp1086
g1078
asg9
S'./sarahs_inbox/parsed/msnbc/txt/1011.txt'
p1087
sg10
g30
sg12
g31
sg32
g57
sba(i__main__
inode
p1088
(dp1089
g3
S'Palin, Sarah (GOV sponsored) [govpalinalaska.gov] -- Re FYI'
p1090
sg5
g6
sg7
(lp1091
g1078
asg9
S'./sarahs_inbox/parsed/msnbc/txt/10111.txt'
p1092
sg10
g30
sg12
g31
sg32
g770
sba(i__main__
inode
p1093
(dp1094
g3
S'Mason , Janice L (GOV) [/O=SOA/OU=FIRST ADMINISTRATIVE -- Luggage'
p1095
sg5
g6
sg7
(lp1096
g1078
asg9
S'./sarahs_inbox/parsed/msnbc/txt/10119.txt'
p1097
sg10
g30
sg12
g31
sg32
g39
sba(i__main__
inode
p1098
(dp1099
g3
S'ftb907@yahoo.com -- Re Fwd Support PR Campaign from Trooper President'
p1100
sg5
g6
sg7
(lp1101
g1078
asg9
S'./sarahs_inbox/parsed/msnbc/txt/1012.txt'
p1102
sg10
g30
sg12
g31
sg32
g87
sba(i__main__
inode
p1103
(dp1104
g3
S'gov.sarah @yahoo.com -- CSI Alaska'
p1105
sg5
g6
sg7
(lp1106
g1078
asg9
S'./sarahs_inbox/parsed/msnbc/txt/10125.txt'
p1107
sg10
g30
sg12
g31
sg32
g402
sba(i__main__
inode
p1108
(dp1109
g3
S'Governor Sarah Palin (GOV sponsored) [govemor@alaska.gov] -- RE Other'
p1110
sg5
g6
sg7
(lp1111
g1078
asg9
S'./sarahs_inbox/parsed/msnbc/txt/10126.txt'
p1112
sg10
g30
sg12
g31
sg32
g291
sba(i__main__
inode
p1113
(dp1114
g3
S'PARNELL, S (GOV sponsored) [/O=SOA/OU=FIRST ADMINISTRATIVE -- Kenai River Regs'
p1115
sg5
g6
sg7
(lp1116
g1078
asg9
S'./sarahs_inbox/parsed/msnbc/txt/10141.txt'
p1117
sg10
g30
sg12
g31
sg32
g1044
sba(i__main__
inode
p1118
(dp1119
g3
S'Von Scheben, Leo (DOT) [/O=SOA/OU=FIRST ADMINISTRATIVE -- FW Aleknagik'
p1120
sg5
g6
sg7
(lp1121
g1078
asg9
S'./sarahs_inbox/parsed/msnbc/txt/10150.txt'
p1122
sg10
g30
sg12
g31
sg32
S'10150.txt'
p1123
sba(i__main__
inode
p1124
(dp1125
g3
S'gov.sarah@yahoo.com -- Re Bridge DOT bond'
p1126
sg5
g6
sg7
(lp1127
g1078
asg9
S'./sarahs_inbox/parsed/msnbc/txt/10163.txt'
p1128
sg10
g30
sg12
g31
sg32
g517
sbasg32
S'Topic: 15'
p1129
sba(i__main__
inode
p1130
(dp1131
g3
S'gov, alaska, nizich, talis, mike, colberg, michael, john, sean, sponsored'
p1132
sg5
g6
sg7
(lp1133
g14
asg9
g4
sg10
g23
sg12
(lp1134
(i__main__
inode
p1135
(dp1136
g3
S"Leschper, Beth (GOV) [beth.leschper@alaska.gov] -- Governor's Budget Priorities Web Survey"
p1137
sg5
g6
sg7
(lp1138
g1130
asg9
S'./sarahs_inbox/parsed/msnbc/txt/10121.txt'
p1139
sg10
g30
sg12
g31
sg32
g1008
sba(i__main__
inode
p1140
(dp1141
g3
S'PARNELL, S (GOV sponsored) [/O=SOA/OU=FIRST ADMINISTRATIVE -- Thinking out loud'
p1142
sg5
g6
sg7
(lp1143
g1130
asg9
S'./sarahs_inbox/parsed/msnbc/txt/10129.txt'
p1144
sg10
g30
sg12
g31
sg32
g105
sba(i__main__
inode
p1145
(dp1146
g3
S'Jackson, Karleen K (HSS) [karleen.jackson@aiaska.gov] -- RE Governors Budget Priorities Web Survey'
p1147
sg5
g6
sg7
(lp1148
g1130
asg9
S'./sarahs_inbox/parsed/msnbc/txt/;10147.txt'
p1149
sg10
g30
sg12
g31
sg32
g752
sba(i__main__
inode
p1150
(dp1151
g3
S"Lloyd, Denby S (DFG) [/O=SOA/OU=FIRST ADMINISTRATIVE -- RE Governor's Budget Priorities Web Survey"
p1152
sg5
g6
sg7
(lp1153
g1130
asg9
S'./sarahs_inbox/parsed/msnbc/txt/10153.txt'
p1154
sg10
g30
sg12
g31
sg32
S'10153.txt'
p1155
sba(i__main__
inode
p1156
(dp1157
g3
S'gov.sarah@yahoo.com -- Re Scheduling'
p1158
sg5
g6
sg7
(lp1159
g1130
asg9
S'./sarahs_inbox/parsed/msnbc/txt/10171.txt'
p1160
sg10
g30
sg12
g31
sg32
g340
sbasg32
S'Topic: 16'
p1161
sba(i__main__
inode
p1162
(dp1163
g3
S'alaska, school, state, program, education, student, www, information, year, award'
p1164
sg5
g6
sg7
(lp1165
g14
asg9
g4
sg10
g23
sg12
(lp1166
(i__main__
inode
p1167
(dp1168
g3
S'Bailey, Frank T (GOV) [/O=SOA/OU=FIRST ADMINISTRATIVE -- FW Correction PR 08-044a Governor Palin Appoints to Suicide Prevention Council 032708'
p1169
sg5
g6
sg7
(lp1170
g1162
asg9
S'./sarahs_inbox/parsed/msnbc/txt/1009.txt'
p1171
sg10
g30
sg12
g31
sg32
S'1009.txt'
p1172
sba(i__main__
inode
p1173
(dp1174
g3
S'Mason , Janice L (GOV) [/O=SOA/OU=FIRST ADMINISTRATIVE -- RE Military_and_VeteransAffairs'
p1175
sg5
g6
sg7
(lp1176
g1162
asg9
S'./sarahs_inbox/parsed/msnbc/txt/10114.txt'
p1177
sg10
g30
sg12
g31
sg32
g69
sba(i__main__
inode
p1178
(dp1179
g3
S"Leschper, Beth (GOV) [beth.leschper@alaska.gov] -- Governor's Budget Priorities Web Survey"
p1180
sg5
g6
sg7
(lp1181
g1162
asg9
S'./sarahs_inbox/parsed/msnbc/txt/10121.txt'
p1182
sg10
g30
sg12
g31
sg32
g1008
sba(i__main__
inode
p1183
(dp1184
g3
S'gov. sarah@yahoo.com -- Re Telephone Calls - Drop Out Students'
p1185
sg5
g6
sg7
(lp1186
g1162
asg9
S'./sarahs_inbox/parsed/msnbc/txt/10132.txt'
p1187
sg10
g30
sg12
g31
sg32
g123
sba(i__main__
inode
p1188
(dp1189
g3
S'Mason, Janice L (GOV) [/O=SOA/OU=FIRST ADMINISTRATIVE -- Telephone Calls - Drop Out Students'
p1190
sg5
g6
sg7
(lp1191
g1162
asg9
S'./sarahs_inbox/parsed/msnbc/txt/10142.txt'
p1192
sg10
g30
sg12
g31
sg32
g472
sba(i__main__
inode
p1193
(dp1194
g3
S'Leschper, Beth (GOV) [beth.leschper@alaska.gov] -- updated talking points'
p1195
sg5
g6
sg7
(lp1196
g1162
asg9
S'./sarahs_inbox/parsed/msnbc/txt/10146.txt'
p1197
sg10
g30
sg12
g31
sg32
g655
sba(i__main__
inode
p1198
(dp1199
g3
S'Jackson, Karleen K (HSS) [karleen.jackson@aiaska.gov] -- RE Governors Budget Priorities Web Survey'
p1200
sg5
g6
sg7
(lp1201
g1162
asg9
S'./sarahs_inbox/parsed/msnbc/txt/;10147.txt'
p1202
sg10
g30
sg12
g31
sg32
g752
sba(i__main__
inode
p1203
(dp1204
g3
S'Governor Sarah Palin (GOV sponsored) [governor@ alaska.gov] -- Voices Across Alaska State Budget Priorities'
p1205
sg5
g6
sg7
(lp1206
g1162
asg9
S'./sarahs_inbox/parsed/msnbc/txt/10148.txt'
p1207
sg10
g30
sg12
g31
sg32
g661
sba(i__main__
inode
p1208
(dp1209
g3
S'gov.sarah@yahoo.com -- Re Ethics training lacks a final test'
p1210
sg5
g6
sg7
(lp1211
g1162
asg9
S'./sarahs_inbox/parsed/msnbc/txt/10161.txt'
p1212
sg10
g30
sg12
g31
sg32
g1065
sba(i__main__
inode
p1213
(dp1214
g3
S'Kreitzer, Annette E (DOA) [/O=SOA/OU=FIRST ADMINISTRATIVE -- FW Ethics training lacks a final test'
p1215
sg5
g6
sg7
(lp1216
g1162
asg9
S'./sarahs_inbox/parsed/msnbc/txt/10165.txt'
p1217
sg10
g30
sg12
g31
sg32
g1071
sba(i__main__
inode
p1218
(dp1219
g3
S'Kris Norosz [KrisN@Icic[eSeafoods.com] -- Support for the UAF "fisheries" line item'
p1220
sg5
g6
sg7
(lp1221
g1162
asg9
S'./sarahs_inbox/parsed/msnbc/txt/10166.txt'
p1222
sg10
g30
sg12
g31
sg32
g791
sba(i__main__
inode
p1223
(dp1224
g3
S'Rehfeld, Karen J (GOV) [/O=SOA/OU=FIRST ADMINISTRATIVE -- RE Support for the UAF "fisheries" line item'
p1225
sg5
g6
sg7
(lp1226
g1162
asg9
S'./sarahs_inbox/parsed/msnbc/txt/10188.txt'
p1227
sg10
g30
sg12
g31
sg32
g797
sba(i__main__
inode
p1228
(dp1229
g3
S'Rehfeld, Karen J (GOV) [/O=SOA/OU=FIRST ADMINISTRATIVE -- RE Univ. of Alaska Funding - Fisheries'
p1230
sg5
g6
sg7
(lp1231
g1162
asg9
S'./sarahs_inbox/parsed/msnbc/txt/10189.txt'
p1232
sg10
g30
sg12
g31
sg32
g803
sbasg32
S'Topic: 17'
p1233
sba(i__main__
inode
p1234
(dp1235
g3
S'org, email, gov, alaskadc, john, address, state, jwkatz, katz, tibbles'
p1236
sg5
g6
sg7
(lp1237
g14
asg9
g4
sg10
g23
sg12
(lp1238
(i__main__
inode
p1239
(dp1240
g3
S'John Katz jwkatz ALASKADC.org] -- Federal Funding/State Budget'
p1241
sg5
g6
sg7
(lp1242
g1234
asg9
S'./sarahs_inbox/parsed/msnbc/txt/10144.txt'
p1243
sg10
g30
sg12
g31
sg32
g159
sba(i__main__
inode
p1244
(dp1245
g3
S'gov.sarah@yahoo.com -- Fw AEA tomorrow'
p1246
sg5
g6
sg7
(lp1247
g1234
asg9
S'./sarahs_inbox/parsed/msnbc/txt/10187.txt'
p1248
sg10
g30
sg12
g31
sg32
g615
sbasg32
S'Topic: 18'
p1249
sba(i__main__
inode
p1250
(dp1251
g3
S'business, waste, million, company, market, energy, page, new, climate, change'
p1252
sg5
g6
sg7
(lp1253
g14
asg9
g4
sg10
g23
sg12
(lp1254
(i__main__
inode
p1255
(dp1256
g3
S'Von Scheben, Leo (DOT) [/O=SOA/OU=FIRST ADMINISTRATIVE -- FW Aleknagik'
p1257
sg5
g6
sg7
(lp1258
g1250
asg9
S'./sarahs_inbox/parsed/msnbc/txt/10150.txt'
p1259
sg10
g30
sg12
g31
sg32
g1123
sba(i__main__
inode
p1260
(dp1261
g3
S'Leschper, Beth (GOV) [beth.Ieschper@alaska.gov] -- Remarks for AEA Railbelt Conf'
p1262
sg5
g6
sg7
(lp1263
g1250
asg9
S'./sarahs_inbox/parsed/msnbc/txt/10157.txt'
p1264
sg10
g30
sg12
g31
sg32
S'10157.txt'
p1265
sbasg32
S'Topic: 19'
p1266
sba(i__main__
inode
p1267
(dp1268
g3
S'issue, pra, one, know, sent, call, asked, said, need, letter'
p1269
sg5
g6
sg7
(lp1270
g14
asg9
g4
sg10
g23
sg12
(lp1271
(i__main__
inode
p1272
(dp1273
g3
S'Frye, Ivy J (DOA) [/O=SOA/OU=FIRST ADMINISTRATIVE -- Fw Psea ads'
p1274
sg5
g6
sg7
(lp1275
g1267
asg9
S'./sarahs_inbox/parsed/msnbc/txt/1014.txt'
p1276
sg10
g30
sg12
g31
sg32
g950
sba(i__main__
inode
p1277
(dp1278
g3
S'Frye, Ivy J (DOA) [/O=SOA/OU=FIRST ADMINISTRATIVE GROUP/CN=RECIPIENTS/CN=IJFRYEI -- FW empire'
p1279
sg5
g6
sg7
(lp1280
g1267
asg9
S'./sarahs_inbox/parsed/msnbc/txt/1015.txt'
p1281
sg10
g30
sg12
g31
sg32
g956
sba(i__main__
inode
p1282
(dp1283
g3
S'gov.sarah@yahoo.com -- Re Ethics training lacks a final test'
p1284
sg5
g6
sg7
(lp1285
g1267
asg9
S'./sarahs_inbox/parsed/msnbc/txt/10161.txt'
p1286
sg10
g30
sg12
g31
sg32
g1065
sba(i__main__
inode
p1287
(dp1288
g3
S'Kreitzer, Annette E (DOA) [/O=SOA/OU=FIRST ADMINISTRATIVE -- FW Ethics training lacks a final test'
p1289
sg5
g6
sg7
(lp1290
g1267
asg9
S'./sarahs_inbox/parsed/msnbc/txt/10165.txt'
p1291
sg10
g30
sg12
g31
sg32
g1071
sba(i__main__
inode
p1292
(dp1293
g3
S'gov.sarah@yahoo.com -- Ktuu'
p1294
sg5
g6
sg7
(lp1295
g1267
asg9
S'./sarahs_inbox/parsed/msnbc/txt/10167.txt'
p1296
sg10
g30
sg12
g31
sg32
g523
sba(i__main__
inode
p1297
(dp1298
g3
S'PARNELL, S (GOV sponsored) [/O=SOA/OU=FIRST ADMINISTRATIVE -- Re Fagan'
p1299
sg5
g6
sg7
(lp1300
g1267
asg9
S'./sarahs_inbox/parsed/msnbc/txt/10172.txt'
p1301
sg10
g30
sg12
g31
sg32
g213
sba(i__main__
inode
p1302
(dp1303
g3
S'gov.sarah @yahoo.com -- Re Fagan'
p1304
sg5
g6
sg7
(lp1305
g1267
asg9
S'./sarahs_inbox/parsed/msnbc/txt/10173.txt'
p1306
sg10
g30
sg12
g31
sg32
g219
sba(i__main__
inode
p1307
(dp1308
g3
S'PARNELL, S (GOV sponsored) [/O=SOA/OU=FIRST ADMINISTRATIVE -- Re Fagan'
p1309
sg5
g6
sg7
(lp1310
g1267
asg9
S'./sarahs_inbox/parsed/msnbc/txt/10174.txt'
p1311
sg10
g30
sg12
g31
sg32
g225
sba(i__main__
inode
p1312
(dp1313
g3
S'gov.sarah@yahoo.com -- Re Fagan'
p1314
sg5
g6
sg7
(lp1315
g1267
asg9
S'./sarahs_inbox/parsed/msnbc/txt/10175.txt'
p1316
sg10
g30
sg12
g31
sg32
g231
sba(i__main__
inode
p1317
(dp1318
g3
S'PARNELL, S (GOV sponsored) [/O=SOA/OU=FIRST ADMINISTRATIVE -- Re Fagan'
p1319
sg5
g6
sg7
(lp1320
g1267
asg9
S'./sarahs_inbox/parsed/msnbc/txt/10176.txt'
p1321
sg10
g30
sg12
g31
sg32
g564
sba(i__main__
inode
p1322
(dp1323
g3
S'gov.sarah@yahoo.com -- Fagan'
p1324
sg5
g6
sg7
(lp1325
g1267
asg9
S'./sarahs_inbox/parsed/msnbc/txt/10177.txt'
p1326
sg10
g30
sg12
g31
sg32
g570
sba(i__main__
inode
p1327
(dp1328
g3
S'gov.sarah@yahoo.com -- Re Conoco'
p1329
sg5
g6
sg7
(lp1330
g1267
asg9
S'./sarahs_inbox/parsed/msnbc/txt/10183.txt'
p1331
sg10
g30
sg12
g31
sg32
g243
sba(i__main__
inode
p1332
(dp1333
g3
S'Frye, Ivy J (DOA) [/O=SOA/OU=FIRST ADMINISTRATIVE -- Fw Conoco'
p1334
sg5
g6
sg7
(lp1335
g1267
asg9
S'./sarahs_inbox/parsed/msnbc/txt/10186.txt'
p1336
sg10
g30
sg12
g31
sg32
g261
sba(i__main__
inode
p1337
(dp1338
g3
S'gov.sarah@yahoo.com -- Fw AEA tomorrow'
p1339
sg5
g6
sg7
(lp1340
g1267
asg9
S'./sarahs_inbox/parsed/msnbc/txt/10187.txt'
p1341
sg10
g30
sg12
g31
sg32
g615
sbasg32
S'Topic: 20'
p1342
sba(i__main__
inode
p1343
(dp1344
g3
S'governor, palin, message, alaska, address, sarah, thank, gov, mail, sent'
p1345
sg5
g6
sg7
(lp1346
g14
asg9
g4
sg10
g23
sg12
(lp1347
(i__main__
inode
p1348
(dp1349
g3
S"Governor Sarah Palin (GOV sponsored) [governor@alaska.govj -- FW George Brown's granddaughter"
p1350
sg5
g6
sg7
(lp1351
g1343
asg9
S'./sarahs_inbox/parsed/msnbc/txt/10110.txt'
p1352
sg10
g30
sg12
g31
sg32
g63
sba(i__main__
inode
p1353
(dp1354
g3
S'Mason , Janice L (GOV) I/O=SOA/OU=FIRST ADMINISTRATIVE -- RE Military_and Veterans_Affairs'
p1355
sg5
g6
sg7
(lp1356
g1343
asg9
S'./sarahs_inbox/parsed/msnbc/txt/10113.txt'
p1357
sg10
g30
sg12
g31
sg32
g379
sba(i__main__
inode
p1358
(dp1359
g3
S'Governor Sarah Palin (GOV sponsored) [govemor@alaska.gov] -- RE Other'
p1360
sg5
g6
sg7
(lp1361
g1343
asg9
S'./sarahs_inbox/parsed/msnbc/txt/10126.txt'
p1362
sg10
g30
sg12
g31
sg32
g291
sba(i__main__
inode
p1363
(dp1364
g3
S'Governor Sarah Palin (GOV sponsored) [govemor@alaska.gov] -- RE Health-Care'
p1365
sg5
g6
sg7
(lp1366
g1343
asg9
S'./sarahs_inbox/parsed/msnbc/txt/10149.txt'
p1367
sg10
g30
sg12
g31
sg32
g171
sba(i__main__
inode
p1368
(dp1369
g3
S"Lloyd, Denby S (DFG) [/O=SOA/OU=FIRST ADMINISTRATIVE -- RE Governor's Budget Priorities Web Survey"
p1370
sg5
g6
sg7
(lp1371
g1343
asg9
S'./sarahs_inbox/parsed/msnbc/txt/10153.txt'
p1372
sg10
g30
sg12
g31
sg32
g1155
sba(i__main__
inode
p1373
(dp1374
g3
S'gov.sarah@yahoo.com -- Re AK Right to Life Remarks'
p1375
sg5
g6
sg7
(lp1376
g1343
asg9
S'./sarahs_inbox/parsed/msnbc/txt/10154.txt'
p1377
sg10
g30
sg12
g31
sg32
g499
sba(i__main__
inode
p1378
(dp1379
g3
S'Governor Sarah Palin (GOV sponsored) [governor@alaska.gov] -- RE Military_and_Veterans_Affairs'
p1380
sg5
g6
sg7
(lp1381
g1343
asg9
S'./sarahs_inbox/parsed/msnbc/txt/10158.txt'
p1382
sg10
g30
sg12
g31
sg32
g273
sba(i__main__
inode
p1383
(dp1384
g3
S'Sarah Palin [ gov.sarah @yahoo.com] -- Re Happy Thanksgiving!'
p1385
sg5
g6
sg7
(lp1386
g1343
asg9
S'./sarahs_inbox/parsed/msnbc/txt/10159.txt'
p1387
sg10
g30
sg12
g31
sg32
g183
sba(i__main__
inode
p1388
(dp1389
g3
S'gov.sarah@yahoo.com -- Re AK Right to Life Remarks'
p1390
sg5
g6
sg7
(lp1391
g1343
asg9
S'./sarahs_inbox/parsed/msnbc/txt/10182.txt'
p1392
sg10
g30
sg12
g31
sg32
g604
sba(i__main__
inode
p1393
(dp1394
g3
S'Governor Sarah Palin (GOV sponsored) [governor@alaska.gov] -- RE Health-Care'
p1395
sg5
g6
sg7
(lp1396
g1343
asg9
S'./sarahs_inbox/parsed/msnbc/txt/10184.txt'
p1397
sg10
g30
sg12
g31
sg32
g249
sbasg32
S'Topic: 21'
p1398
sba(i__main__
inode
p1399
(dp1400
g3
S'alaska, fish, game, fishery, state, subsistence, board, hunting, fishing, food'
p1401
sg5
g6
sg7
(lp1402
g14
asg9
g4
sg10
g23
sg12
(lp1403
(i__main__
inode
p1404
(dp1405
g3
S'Bailey, Frank T (GOV) [/O=SOA/OU=FIRST ADMINISTRATIVE -- FW Correction PR 08-044a Governor Palin Appoints to Suicide Prevention Council 032708'
p1406
sg5
g6
sg7
(lp1407
g1399
asg9
S'./sarahs_inbox/parsed/msnbc/txt/1009.txt'
p1408
sg10
g30
sg12
g31
sg32
g1172
sba(i__main__
inode
p1409
(dp1410
g3
S"Fagerstrom, Erika (GOV) [erika.fagerstrom@alaska.gov] -- Final RSVP List- Spouses' Luncheon 1200-130pm."
p1411
sg5
g6
sg7
(lp1412
g1399
asg9
S'./sarahs_inbox/parsed/msnbc/txt/1010.txt'
p1413
sg10
g30
sg12
g31
sg32
g51
sba(i__main__
inode
p1414
(dp1415
g3
S'Kris Norosz [KrisN@Icic[eSeafoods.com] -- Support for the UAF "fisheries" line item'
p1416
sg5
g6
sg7
(lp1417
g1399
asg9
S'./sarahs_inbox/parsed/msnbc/txt/10166.txt'
p1418
sg10
g30
sg12
g31
sg32
g791
sbasg32
S'Topic: 22'
p1419
sba(i__main__
inode
p1420
(dp1421
g3
S'state, alaska, cost, bill, governor, chamber, session, health, benefit, member'
p1422
sg5
g6
sg7
(lp1423
g14
asg9
g4
sg10
g23
sg12
(lp1424
(i__main__
inode
p1425
(dp1426
g3
S'Frye, Ivy J (DOA) [/O=SOA/OU=FIRST ADMINISTRATIVE -- Re Fwd Support PR Campaign from Trooper President'
p1427
sg5
g6
sg7
(lp1428
g1420
asg9
S'./sarahs_inbox/parsed/msnbc/txt/1011.txt'
p1429
sg10
g30
sg12
g31
sg32
g57
sba(i__main__
inode
p1430
(dp1431
g3
S'PARNELL, S (GOV sponsored) [/O=SOA/OU=FIRST ADMINISTRATIVE -- LG Office Budget'
p1432
sg5
g6
sg7
(lp1433
g1420
asg9
S'./sarahs_inbox/parsed/msnbc/txt/10116.txt'
p1434
sg10
g30
sg12
g31
sg32
g75
sba(i__main__
inode
p1435
(dp1436
g3
S'PARNELL, S (GOV sponsored ) [/O=SOA/OU=FIRST ADMINISTRATIVE -- LG Office Budget'
p1437
sg5
g6
sg7
(lp1438
g1420
asg9
S'./sarahs_inbox/parsed/msnbc/txt/10118.txt'
p1439
sg10
g30
sg12
g31
sg32
g81
sba(i__main__
inode
p1440
(dp1441
g3
S'ftb907@yahoo.com -- Re Fwd Support PR Campaign from Trooper President'
p1442
sg5
g6
sg7
(lp1443
g1420
asg9
S'./sarahs_inbox/parsed/msnbc/txt/1012.txt'
p1444
sg10
g30
sg12
g31
sg32
g87
sba(i__main__
inode
p1445
(dp1446
g3
S'Leschper, Beth (GOV) [beth.leschper@alaska.gov] -- updated talking points'
p1447
sg5
g6
sg7
(lp1448
g1420
asg9
S'./sarahs_inbox/parsed/msnbc/txt/10146.txt'
p1449
sg10
g30
sg12
g31
sg32
g655
sba(i__main__
inode
p1450
(dp1451
g3
S'Governor Sarah Palin (GOV sponsored) [govemor@alaska.gov] -- RE Health-Care'
p1452
sg5
g6
sg7
(lp1453
g1420
asg9
S'./sarahs_inbox/parsed/msnbc/txt/10149.txt'
p1454
sg10
g30
sg12
g31
sg32
g171
sba(i__main__
inode
p1455
(dp1456
g3
S'Frye, Ivy J (DOA) [/O=SOA/OU=FIRST ADMINISTRATIVE GROUP/CN=RECIPIENTS/CN=IJFRYE] -- great letter to the editor from Phil Schneider'
p1457
sg5
g6
sg7
(lp1458
g1420
asg9
S'./sarahs_inbox/parsed/msnbc/txt/10156.txt'
p1459
sg10
g30
sg12
g31
sg32
g667
sba(i__main__
inode
p1460
(dp1461
g3
S'Leschper, Beth (GOV) [beth.Ieschper@alaska.gov] -- Remarks for AEA Railbelt Conf'
p1462
sg5
g6
sg7
(lp1463
g1420
asg9
S'./sarahs_inbox/parsed/msnbc/txt/10157.txt'
p1464
sg10
g30
sg12
g31
sg32
g1265
sba(i__main__
inode
p1465
(dp1466
g3
S'Rehfeld, Karen J (GOV) [/O=SOA/OU=FIRST ADMINISTRATIVE -- RE Support for the UAF "fisheries" line item'
p1467
sg5
g6
sg7
(lp1468
g1420
asg9
S'./sarahs_inbox/parsed/msnbc/txt/10188.txt'
p1469
sg10
g30
sg12
g31
sg32
g797
sba(i__main__
inode
p1470
(dp1471
g3
S'Rehfeld, Karen J (GOV) [/O=SOA/OU=FIRST ADMINISTRATIVE -- RE Univ. of Alaska Funding - Fisheries'
p1472
sg5
g6
sg7
(lp1473
g1420
asg9
S'./sarahs_inbox/parsed/msnbc/txt/10189.txt'
p1474
sg10
g30
sg12
g31
sg32
g803
sbasg32
S'Topic: 23'
p1475
sba(i__main__
inode
p1476
(dp1477
g3
S'board, governor, member, page, alaska, director, council, seat, commission, meeting'
p1478
sg5
g6
sg7
(lp1479
g14
asg9
g4
sg10
g23
sg12
(lp1480
(i__main__
inode
p1481
(dp1482
g3
S'Bailey, Frank T (GOV) [/O=SOA/OU=FIRST ADMINISTRATIVE -- FW Correction PR 08-044a Governor Palin Appoints to Suicide Prevention Council 032708'
p1483
sg5
g6
sg7
(lp1484
g1476
asg9
S'./sarahs_inbox/parsed/msnbc/txt/1009.txt'
p1485
sg10
g30
sg12
g31
sg32
g1172
sba(i__main__
inode
p1486
(dp1487
g3
S'Palin, Sarah (GOV sponsored) [govpalinalaska.gov] -- Re FYI'
p1488
sg5
g6
sg7
(lp1489
g1476
asg9
S'./sarahs_inbox/parsed/msnbc/txt/10111.txt'
p1490
sg10
g30
sg12
g31
sg32
g770
sba(i__main__
inode
p1491
(dp1492
g3
S'PARNELL, S (GOV sponsored) [/O=SOA/OU=FIRST ADMINISTRATIVE -- LG Office Budget'
p1493
sg5
g6
sg7
(lp1494
g1476
asg9
S'./sarahs_inbox/parsed/msnbc/txt/10116.txt'
p1495
sg10
g30
sg12
g31
sg32
g75
sba(i__main__
inode
p1496
(dp1497
g3
S'PARNELL, S (GOV sponsored ) [/O=SOA/OU=FIRST ADMINISTRATIVE -- LG Office Budget'
p1498
sg5
g6
sg7
(lp1499
g1476
asg9
S'./sarahs_inbox/parsed/msnbc/txt/10118.txt'
p1500
sg10
g30
sg12
g31
sg32
g81
sba(i__main__
inode
p1501
(dp1502
g3
S'Mason , Janice L (GOV) [/O=SOA/OU=FIRST ADMINISTRATIVE -- Luggage'
p1503
sg5
g6
sg7
(lp1504
g1476
asg9
S'./sarahs_inbox/parsed/msnbc/txt/10119.txt'
p1505
sg10
g30
sg12
g31
sg32
g39
sba(i__main__
inode
p1506
(dp1507
g3
S'Linda Kovac [Ikovac@chugiakcouncil.org] -- Chugiak Community Council Request re Old Glenn Highway Project'
p1508
sg5
g6
sg7
(lp1509
g1476
asg9
S'./sarahs_inbox/parsed/msnbc/txt/10160.txt'
p1510
sg10
g30
sg12
g31
sg32
g827
sba(i__main__
inode
p1511
(dp1512
g3
S'Perry, Kristina Y (GOV) [kris.perry@alaska.gov] -- Re Philadelphia'
p1513
sg5
g6
sg7
(lp1514
g1476
asg9
S'./sarahs_inbox/parsed/msnbc/txt/1018.txt'
p1515
sg10
g30
sg12
g31
sg32
g588
sbasg32
S'Topic: 24'
p1516
sba(i__main__
inode
p1517
(dp1518
g3
S'gov, dnr, marty, rutherford, tom, balash, state, irwin, alaska, galvin'
p1519
sg5
g6
sg7
(lp1520
g14
asg9
g4
sg10
g23
sg12
(lp1521
(i__main__
inode
p1522
(dp1523
g3
S'Rutherford, Marty K (DNR) [/O=SOA/OU=FIRST ADMINISTRATIVE -- FW Confirmation of the Novemberl 5th discussion'
p1524
sg5
g6
sg7
(lp1525
g1517
asg9
S'./sarahs_inbox/parsed/msnbc/txt/10152.txt'
p1526
sg10
g30
sg12
g31
sg32
g177
sba(i__main__
inode
p1527
(dp1528
g3
S"Lloyd, Denby S (DFG) [/O=SOA/OU=FIRST ADMINISTRATIVE -- RE Governor's Budget Priorities Web Survey"
p1529
sg5
g6
sg7
(lp1530
g1517
asg9
S'./sarahs_inbox/parsed/msnbc/txt/10153.txt'
p1531
sg10
g30
sg12
g31
sg32
g1155
sba(i__main__
inode
p1532
(dp1533
g3
S'gov.sarah@yahoo.com -- Ktuu'
p1534
sg5
g6
sg7
(lp1535
g1517
asg9
S'./sarahs_inbox/parsed/msnbc/txt/10167.txt'
p1536
sg10
g30
sg12
g31
sg32
g523
sba(i__main__
inode
p1537
(dp1538
g3
S'Balash, Joseph R (GOV) [/O=SOA/OU=FIRST ADMINISTRATIVE -- Re Energy pts'
p1539
sg5
g6
sg7
(lp1540
g1517
asg9
S'./sarahs_inbox/parsed/msnbc/txt/10178.txt'
p1541
sg10
g30
sg12
g31
sg32
g576
sba(i__main__
inode
p1542
(dp1543
g3
S'gov.sarah @yahoo.com -- Energy pts'
p1544
sg5
g6
sg7
(lp1545
g1517
asg9
S'./sarahs_inbox/parsed/msnbc/txt/10179.txt'
p1546
sg10
g30
sg12
g31
sg32
g582
sba(i__main__
inode
p1547
(dp1548
g3
S'gov.sarah@yahoo.com -- Re AEA Director'
p1549
sg5
g6
sg7
(lp1550
g1517
asg9
S'./sarahs_inbox/parsed/msnbc/txt/10181.txt'
p1551
sg10
g30
sg12
g31
sg32
g237
sba(i__main__
inode
p1552
(dp1553
g3
S'gov.sarah@yahoo.com -- AEA Director'
p1554
sg5
g6
sg7
(lp1555
g1517
asg9
S'./sarahs_inbox/parsed/msnbc/txt/10185.txt'
p1556
sg10
g30
sg12
g31
sg32
g255
sbasg32
S'Topic: 25'
p1557
sba(i__main__
inode
p1558
(dp1559
g3
S'letter, airport, dot, meeting, page, use, goode, would, willow, please'
p1560
sg5
g6
sg7
(lp1561
g14
asg9
g4
sg10
g23
sg12
(lp1562
(i__main__
inode
p1563
(dp1564
g3
S'Fagerstrom, Erika (GOV) [/O=SOA/OU=FIRST ADMINISTRATIVE -- Water Pipe Replacement Cost'
p1565
sg5
g6
sg7
(lp1566
g1558
asg9
S'./sarahs_inbox/parsed/msnbc/txt/1000.txt'
p1567
sg10
g30
sg12
g31
sg32
g627
sba(i__main__
inode
p1568
(dp1569
g3
S'Fagerstrom, Erika (GOV) VO=SOA/OU=FIRST ADMINISTRATIVE -- Educ.Comm. Thompson- Request to attend Anchorage Mtg.on "Drop out issue" Fri. 4/18 (10-2pm.)'
p1570
sg5
g6
sg7
(lp1571
g1558
asg9
S'./sarahs_inbox/parsed/msnbc/txt/1005.txt'
p1572
sg10
g30
sg12
g31
sg32
g303
sba(i__main__
inode
p1573
(dp1574
g3
S'PARNELL, S (GOV sponsored) [/O=SOA/OU=FIRST ADMINISTRATIVE -- Kenai River Regs'
p1575
sg5
g6
sg7
(lp1576
g1558
asg9
S'./sarahs_inbox/parsed/msnbc/txt/10141.txt'
p1577
sg10
g30
sg12
g31
sg32
g1044
sba(i__main__
inode
p1578
(dp1579
g3
S'Von Scheben, Leo (DOT) [/O=SOA/OU=FIRST ADMINISTRATIVE -- FW Aleknagik'
p1580
sg5
g6
sg7
(lp1581
g1558
asg9
S'./sarahs_inbox/parsed/msnbc/txt/10150.txt'
p1582
sg10
g30
sg12
g31
sg32
g1123
sba(i__main__
inode
p1583
(dp1584
g3
S'Linda Kovac [Ikovac@chugiakcouncil.org] -- Chugiak Community Council Request re Old Glenn Highway Project'
p1585
sg5
g6
sg7
(lp1586
g1558
asg9
S'./sarahs_inbox/parsed/msnbc/txt/10160.txt'
p1587
sg10
g30
sg12
g31
sg32
g827
sba(i__main__
inode
p1588
(dp1589
g3
S"Palin, Sarah (GOV sponsored ) [govpalin@alaska.gov] -- Re Murph O'brien"
p1590
sg5
g6
sg7
(lp1591
g1558
asg9
S'./sarahs_inbox/parsed/msnbc/txt/10170.txt'
p1592
sg10
g30
sg12
g31
sg32
g758
sbasg32
S'Topic: 26'
p1593
sba(i__main__
inode
p1594
(dp1595
g3
S'state, mat, maid, dairy, energy, farmer, milk, plan, need, governor'
p1596
sg5
g6
sg7
(lp1597
g14
asg9
g4
sg10
g23
sg12
(lp1598
(i__main__
inode
p1599
(dp1600
g3
S'fek9wnr@yahoo.com -- Re Call'
p1601
sg5
g6
sg7
(lp1602
g1594
asg9
S'./sarahs_inbox/parsed/msnbc/txt/1007.txt'
p1603
sg10
g30
sg12
g31
sg32
g871
sba(i__main__
inode
p1604
(dp1605
g3
S'Frye, Ivy J (DOA) [/O=SOA/OU=FIRST ADMINISTRATIVE GROUP/CN=RECIPIENTS/CN=IJFRYE] -- great letter to the editor from Phil Schneider'
p1606
sg5
g6
sg7
(lp1607
g1594
asg9
S'./sarahs_inbox/parsed/msnbc/txt/10156.txt'
p1608
sg10
g30
sg12
g31
sg32
g667
sba(i__main__
inode
p1609
(dp1610
g3
S'Leschper, Beth (GOV) [beth.Ieschper@alaska.gov] -- Remarks for AEA Railbelt Conf'
p1611
sg5
g6
sg7
(lp1612
g1594
asg9
S'./sarahs_inbox/parsed/msnbc/txt/10157.txt'
p1613
sg10
g30
sg12
g31
sg32
g1265
sba(i__main__
inode
p1614
(dp1615
g3
S'gov.sarah @yahoo.com -- Energy pts'
p1616
sg5
g6
sg7
(lp1617
g1594
asg9
S'./sarahs_inbox/parsed/msnbc/txt/10179.txt'
p1618
sg10
g30
sg12
g31
sg32
g582
sba(i__main__
inode
p1619
(dp1620
g3
S'Governor Sarah Palin (GOV sponsored) [governor@alaska.gov] -- RE Health-Care'
p1621
sg5
g6
sg7
(lp1622
g1594
asg9
S'./sarahs_inbox/parsed/msnbc/txt/10184.txt'
p1623
sg10
g30
sg12
g31
sg32
g249
sbasg32
S'Topic: 27'
p1624
sba(i__main__
inode
p1625
(dp1626
g3
S'meghan, stapleton, kari, spencer, state, com, palin, gov, communication, page'
p1627
sg5
g6
sg7
(lp1628
g14
asg9
g4
sg10
g23
sg12
(lp1629
(i__main__
inode
p1630
(dp1631
g3
S'Fagerstrom, Erika (GOV) [/O=SOA/OU=FIRST ADMINISTRATIVE -- Travel Fri. 3/28'
p1632
sg5
g6
sg7
(lp1633
g1625
asg9
S'./sarahs_inbox/parsed/msnbc/txt/1002.txt'
p1634
sg10
g30
sg12
g31
sg32
g844
sba(i__main__
inode
p1635
(dp1636
g3
S'Fagerstrom, Erika (GOV) [/O=SOA/OU=FIRST ADMINISTRATIVE -- RE Romer'
p1637
sg5
g6
sg7
(lp1638
g1625
asg9
S'./sarahs_inbox/parsed/msnbc/txt/1003.txt'
p1639
sg10
g30
sg12
g31
sg32
g850
sba(i__main__
inode
p1640
(dp1641
g3
S'frank bailey [ftb907@yahoo.com] -- Le Ear'
p1642
sg5
g6
sg7
(lp1643
g1625
asg9
S'./sarahs_inbox/parsed/msnbc/txt/;1013.txt'
p1644
sg10
g30
sg12
g31
sg32
g934
sba(i__main__
inode
p1645
(dp1646
g3
S'Mason , Janice L (GOV) [/O=SOA/OU=FIRST ADMINISTRATIVE -- Re Scheduling'
p1647
sg5
g6
sg7
(lp1648
g1625
asg9
S'./sarahs_inbox/parsed/msnbc/txt/10139.txt'
p1649
sg10
g30
sg12
g31
sg32
g461
sbasg32
S'Topic: 28'
p1650
sba(i__main__
inode
p1651
(dp1652
g3
S'name, great, team, chuck, apoc, crew, think, together, thank, redact'
p1653
sg5
g6
sg7
(lp1654
g14
asg9
g4
sg10
g23
sg12
(lp1655
(i__main__
inode
p1656
(dp1657
g3
S'Fagerstrom, Erika (GOV) [erika.fagerstrom@alaska.gov] -- Flight Information Friday, March 28th Travel Jnu-Anc. Fit. 67'
p1658
sg5
g6
sg7
(lp1659
g1651
asg9
S'./sarahs_inbox/parsed/msnbc/txt/1004.txt'
p1660
sg10
g30
sg12
g31
sg32
g633
sba(i__main__
inode
p1661
(dp1662
g3
S'gov.sarah@yahoo.com -- Re Welcome to WOW! - News'
p1663
sg5
g6
sg7
(lp1664
g1651
asg9
S'./sarahs_inbox/parsed/msnbc/txt/10122.txt'
p1665
sg10
g30
sg12
g31
sg32
g709
sba(i__main__
inode
p1666
(dp1667
g3
S'Colberg, Talis J (LAW) [/O=SOA/OU=FIRST ADMINISTRATIVE -- Re Welcome to WOW! - News'
p1668
sg5
g6
sg7
(lp1669
g1651
asg9
S'./sarahs_inbox/parsed/msnbc/txt/10123.txt'
p1670
sg10
g30
sg12
g31
sg32
g715
sba(i__main__
inode
p1671
(dp1672
g3
S'gov.sarah @yahoo.com -- Fw Welcome to WOW! - News'
p1673
sg5
g6
sg7
(lp1674
g1651
asg9
S'./sarahs_inbox/parsed/msnbc/txt/10124.txt'
p1675
sg10
g30
sg12
g31
sg32
g721
sba(i__main__
inode
p1676
(dp1677
g3
S'frank bailey [ftb907@yahoo.com] -- Le Ear'
p1678
sg5
g6
sg7
(lp1679
g1651
asg9
S'./sarahs_inbox/parsed/msnbc/txt/;1013.txt'
p1680
sg10
g30
sg12
g31
sg32
g934
sba(i__main__
inode
p1681
(dp1682
g3
S'gov.sarah@yahoo.com -- Fagan'
p1683
sg5
g6
sg7
(lp1684
g1651
asg9
S'./sarahs_inbox/parsed/msnbc/txt/10177.txt'
p1685
sg10
g30
sg12
g31
sg32
g570
sbasg32
S'Topic: 29'
p1686
sbasg32
S'Topic Folder'
p1687
sba(i__main__
inode
p1688
(dp1689
g3
g4
sg5
g6
sg7
(lp1690
g1
asg9
g4
sg10
g17
sg12
g31
sg32
S'Social Folder'
p1691
sba(i__main__
inode
p1692
(dp1693
g3
g4
sg5
g6
sg7
(lp1694
g1
asg9
g4
sg10
g17
sg12
(lp1695
(i__main__
inode
p1696
(dp1697
g3
S"Fagerstrom, Erika (GOV) [erika.fagerstrom@alaska.gov] -- RE FYI- RSVP Spouses' Luncheon Friday, March 28, 2008 1200 to 130pm."
p1698
sg5
g6
sg7
(lp1699
g1692
asg9
S'./sarahs_inbox/parsed/msnbc/txt/;1006.txt'
p1700
sg10
g30
sg12
g31
sg32
g815
sba(i__main__
inode
p1701
(dp1702
g3
S'Mason , Janice L (GOV) I/O=SOA/OU=FIRST ADMINISTRATIVE -- RE Military_and Veterans_Affairs'
p1703
sg5
g6
sg7
(lp1704
g1692
asg9
S'./sarahs_inbox/parsed/msnbc/txt/10113.txt'
p1705
sg10
g30
sg12
g31
sg32
g379
sba(i__main__
inode
p1706
(dp1707
g3
S'Mason , Janice L (GOV) [/O=SOA/OU=FIRST ADMINISTRATIVE -- Troops Returning'
p1708
sg5
g6
sg7
(lp1709
g1692
asg9
S'./sarahs_inbox/parsed/msnbc/txt/10117.txt'
p1710
sg10
g30
sg12
g31
sg32
g314
sba(i__main__
inode
p1711
(dp1712
g3
S'Frye, Ivy J (DOA) [/O=SOA/OU=FIRST ADMINISTRATIVE -- Present from paulette'
p1713
sg5
g6
sg7
(lp1714
g1692
asg9
S'./sarahs_inbox/parsed/msnbc/txt/10138.txt'
p1715
sg10
g30
sg12
g31
sg32
g141
sba(i__main__
inode
p1716
(dp1717
g3
S'Frye, Ivy J (DOA) [/O=SOA/OU=FIRST ADMINISTRATIVE -- Fw Psea ads'
p1718
sg5
g6
sg7
(lp1719
g1692
asg9
S'./sarahs_inbox/parsed/msnbc/txt/1014.txt'
p1720
sg10
g30
sg12
g31
sg32
g950
sba(i__main__
inode
p1721
(dp1722
g3
S'Mason, Janice L (GOV) [/O=SOA/OU=FIRST ADMINISTRATIVE -- Telephone Calls - Drop Out Students'
p1723
sg5
g6
sg7
(lp1724
g1692
asg9
S'./sarahs_inbox/parsed/msnbc/txt/10142.txt'
p1725
sg10
g30
sg12
g31
sg32
g472
sba(i__main__
inode
p1726
(dp1727
g3
S'Morgan, Katryn L (GOV) [/O=SOA/OU=FIRST ADMINISTRATIVE -- AK Right to Life Remarks'
p1728
sg5
g6
sg7
(lp1729
g1692
asg9
S'./sarahs_inbox/parsed/msnbc/txt/10151.txt'
p1730
sg10
g30
sg12
g31
sg32
g488
sba(i__main__
inode
p1731
(dp1732
g3
S'Fagerstrom, Erika (GOV) [/O=SOA/OU=FIRST ADMINISTRATIVE -- Flights'
p1733
sg5
g6
sg7
(lp1734
g1692
asg9
S'./sarahs_inbox/parsed/msnbc/txt/1016.txt'
p1735
sg10
g30
sg12
g31
sg32
g511
sba(i__main__
inode
p1736
(dp1737
g3
S'Frye, Ivy J (DOA) [/O=SOA/OU=FIRST ADMINISTRATIVE -- Re Happy Thanksgiving!'
p1738
sg5
g6
sg7
(lp1739
g1692
asg9
S'./sarahs_inbox/parsed/msnbc/txt/10164.txt'
p1740
sg10
g30
sg12
g31
sg32
g195
sba(i__main__
inode
p1741
(dp1742
g3
S'PARNELL, S (GOV sponsored) [/O=SOA/OU=FIRST ADMINISTRATIVE -- Re Fagan'
p1743
sg5
g6
sg7
(lp1744
g1692
asg9
S'./sarahs_inbox/parsed/msnbc/txt/10176.txt'
p1745
sg10
g30
sg12
g31
sg32
g564
sba(i__main__
inode
p1746
(dp1747
g3
S'Fagerstrom, Erika (GOV) [/O=SOA/OU=FIRST ADMINISTRATIVE -- Travel Fri. 3/28'
p1748
sg5
g6
sg7
(lp1749
g1692
asg9
S'./sarahs_inbox/parsed/msnbc/txt/1002.txt'
p1750
sg10
g30
sg12
(lp1751
sg32
g844
sbasg32
S'Unsorted Folder'
p1752
sbasg32
S'ROOT'
p1753
sbag14
ag1688
ag1692
ag19
ag41
ag263
ag275
ag293
ag348
ag617
ag640
ag689
ag760
ag805
ag829
ag904
ag983
ag1078
ag1130
ag1162
ag1234
ag1250
ag1267
ag1343
ag1399
ag1420
ag1476
ag1517
ag1558
ag1594
ag1625
ag1651
ag1696
ag1701
ag1706
ag1711
ag1716
ag1721
ag1726
ag1731
ag1736
ag1741
ag1746
ag25
ag34
ag46
ag52
ag58
ag64
ag70
ag76
ag82
ag88
ag94
ag100
ag106
ag112
ag118
ag124
ag130
ag136
ag142
ag148
ag154
ag160
ag166
ag172
ag178
ag184
ag190
ag196
ag202
ag208
ag214
ag220
ag226
ag232
ag238
ag244
ag250
ag256
ag268
ag280
ag286
ag298
ag304
ag309
ag315
ag320
ag325
ag330
ag335
ag341
ag353
ag358
ag364
ag369
ag374
ag380
ag386
ag391
ag397
ag403
ag408
ag413
ag418
ag423
ag428
ag434
ag440
ag446
ag451
ag456
ag462
ag467
ag473
ag478
ag483
ag489
ag494
ag500
ag506
ag512
ag518
ag524
ag529
ag534
ag539
ag544
ag549
ag554
ag559
ag565
ag571
ag577
ag583
ag589
ag594
ag599
ag605
ag610
ag622
ag628
ag634
ag645
ag650
ag656
ag662
ag668
ag673
ag678
ag683
ag694
ag699
ag704
ag710
ag716
ag722
ag727
ag732
ag737
ag742
ag747
ag753
ag765
ag771
ag776
ag781
ag786
ag792
ag798
ag810
ag816
ag822
ag834
ag839
ag845
ag851
ag856
ag861
ag866
ag872
ag877
ag882
ag887
ag892
ag898
ag909
ag914
ag919
ag924
ag929
ag935
ag940
ag945
ag951
ag957
ag962
ag967
ag972
ag977
ag988
ag993
ag998
ag1003
ag1009
ag1014
ag1019
ag1024
ag1029
ag1034
ag1039
ag1045
ag1050
ag1055
ag1060
ag1066
ag1072
ag1083
ag1088
ag1093
ag1098
ag1103
ag1108
ag1113
ag1118
ag1124
ag1135
ag1140
ag1145
ag1150
ag1156
ag1167
ag1173
ag1178
ag1183
ag1188
ag1193
ag1198
ag1203
ag1208
ag1213
ag1218
ag1223
ag1228
ag1239
ag1244
ag1255
ag1260
ag1272
ag1277
ag1282
ag1287
ag1292
ag1297
ag1302
ag1307
ag1312
ag1317
ag1322
ag1327
ag1332
ag1337
ag1348
ag1353
ag1358
ag1363
ag1368
ag1373
ag1378
ag1383
ag1388
ag1393
ag1404
ag1409
ag1414
ag1425
ag1430
ag1435
ag1440
ag1445
ag1450
ag1455
ag1460
ag1465
ag1470
ag1481
ag1486
ag1491
ag1496
ag1501
ag1506
ag1511
ag1522
ag1527
ag1532
ag1537
ag1542
ag1547
ag1552
ag1563
ag1568
ag1573
ag1578
ag1583
ag1588
ag1599
ag1604
ag1609
ag1614
ag1619
ag1630
ag1635
ag1640
ag1645
ag1656
ag1661
ag1666
ag1671
ag1676
ag1681
a.